ARM GAS  /tmp/ccAd34n9.s 			page 1


   1              		.cpu cortex-m0plus
   2              		.eabi_attribute 20, 1
   3              		.eabi_attribute 21, 1
   4              		.eabi_attribute 23, 3
   5              		.eabi_attribute 24, 1
   6              		.eabi_attribute 25, 1
   7              		.eabi_attribute 26, 1
   8              		.eabi_attribute 30, 1
   9              		.eabi_attribute 34, 0
  10              		.eabi_attribute 18, 4
  11              		.file	"stm32g0xx_hal_adc_ex.c"
  12              		.text
  13              	.Ltext0:
  14              		.cfi_sections	.debug_frame
  15              		.section	.text.HAL_ADCEx_Calibration_Start,"ax",%progbits
  16              		.align	1
  17              		.global	HAL_ADCEx_Calibration_Start
  18              		.arch armv6s-m
  19              		.syntax unified
  20              		.code	16
  21              		.thumb_func
  22              		.fpu softvfp
  24              	HAL_ADCEx_Calibration_Start:
  25              	.LVL0:
  26              	.LFB417:
  27              		.file 1 "Drivers/STM32G0xx_HAL_Driver/Src/stm32g0xx_hal_adc_ex.c"
   1:Drivers/STM32G0xx_HAL_Driver/Src/stm32g0xx_hal_adc_ex.c **** /**
   2:Drivers/STM32G0xx_HAL_Driver/Src/stm32g0xx_hal_adc_ex.c ****   ******************************************************************************
   3:Drivers/STM32G0xx_HAL_Driver/Src/stm32g0xx_hal_adc_ex.c ****   * @file    stm32g0xx_hal_adc_ex.c
   4:Drivers/STM32G0xx_HAL_Driver/Src/stm32g0xx_hal_adc_ex.c ****   * @author  MCD Application Team
   5:Drivers/STM32G0xx_HAL_Driver/Src/stm32g0xx_hal_adc_ex.c ****   * @brief   This file provides firmware functions to manage the following
   6:Drivers/STM32G0xx_HAL_Driver/Src/stm32g0xx_hal_adc_ex.c ****   *          functionalities of the Analog to Digital Converter (ADC)
   7:Drivers/STM32G0xx_HAL_Driver/Src/stm32g0xx_hal_adc_ex.c ****   *          peripheral:
   8:Drivers/STM32G0xx_HAL_Driver/Src/stm32g0xx_hal_adc_ex.c ****   *           + Operation functions
   9:Drivers/STM32G0xx_HAL_Driver/Src/stm32g0xx_hal_adc_ex.c ****   *             ++ Calibration
  10:Drivers/STM32G0xx_HAL_Driver/Src/stm32g0xx_hal_adc_ex.c ****   *               +++ ADC automatic self-calibration
  11:Drivers/STM32G0xx_HAL_Driver/Src/stm32g0xx_hal_adc_ex.c ****   *               +++ Calibration factors get or set
  12:Drivers/STM32G0xx_HAL_Driver/Src/stm32g0xx_hal_adc_ex.c ****   *          Other functions (generic functions) are available in file
  13:Drivers/STM32G0xx_HAL_Driver/Src/stm32g0xx_hal_adc_ex.c ****   *          "stm32g0xx_hal_adc.c".
  14:Drivers/STM32G0xx_HAL_Driver/Src/stm32g0xx_hal_adc_ex.c ****   *
  15:Drivers/STM32G0xx_HAL_Driver/Src/stm32g0xx_hal_adc_ex.c ****   ******************************************************************************
  16:Drivers/STM32G0xx_HAL_Driver/Src/stm32g0xx_hal_adc_ex.c ****   * @attention
  17:Drivers/STM32G0xx_HAL_Driver/Src/stm32g0xx_hal_adc_ex.c ****   *
  18:Drivers/STM32G0xx_HAL_Driver/Src/stm32g0xx_hal_adc_ex.c ****   * <h2><center>&copy; Copyright (c) 2018 STMicroelectronics.
  19:Drivers/STM32G0xx_HAL_Driver/Src/stm32g0xx_hal_adc_ex.c ****   * All rights reserved.</center></h2>
  20:Drivers/STM32G0xx_HAL_Driver/Src/stm32g0xx_hal_adc_ex.c ****   *
  21:Drivers/STM32G0xx_HAL_Driver/Src/stm32g0xx_hal_adc_ex.c ****   * This software component is licensed by ST under BSD 3-Clause license,
  22:Drivers/STM32G0xx_HAL_Driver/Src/stm32g0xx_hal_adc_ex.c ****   * the "License"; You may not use this file except in compliance with the
  23:Drivers/STM32G0xx_HAL_Driver/Src/stm32g0xx_hal_adc_ex.c ****   * License. You may obtain a copy of the License at:
  24:Drivers/STM32G0xx_HAL_Driver/Src/stm32g0xx_hal_adc_ex.c ****   *                        opensource.org/licenses/BSD-3-Clause
  25:Drivers/STM32G0xx_HAL_Driver/Src/stm32g0xx_hal_adc_ex.c ****   *
  26:Drivers/STM32G0xx_HAL_Driver/Src/stm32g0xx_hal_adc_ex.c ****   ******************************************************************************
  27:Drivers/STM32G0xx_HAL_Driver/Src/stm32g0xx_hal_adc_ex.c ****   @verbatim
  28:Drivers/STM32G0xx_HAL_Driver/Src/stm32g0xx_hal_adc_ex.c ****   [..]
  29:Drivers/STM32G0xx_HAL_Driver/Src/stm32g0xx_hal_adc_ex.c ****   (@) Sections "ADC peripheral features" and "How to use this driver" are
  30:Drivers/STM32G0xx_HAL_Driver/Src/stm32g0xx_hal_adc_ex.c ****       available in file of generic functions "stm32g0xx_hal_adc.c".
  31:Drivers/STM32G0xx_HAL_Driver/Src/stm32g0xx_hal_adc_ex.c ****   [..]
ARM GAS  /tmp/ccAd34n9.s 			page 2


  32:Drivers/STM32G0xx_HAL_Driver/Src/stm32g0xx_hal_adc_ex.c ****   @endverbatim
  33:Drivers/STM32G0xx_HAL_Driver/Src/stm32g0xx_hal_adc_ex.c ****   */
  34:Drivers/STM32G0xx_HAL_Driver/Src/stm32g0xx_hal_adc_ex.c **** 
  35:Drivers/STM32G0xx_HAL_Driver/Src/stm32g0xx_hal_adc_ex.c **** /* Includes ------------------------------------------------------------------*/
  36:Drivers/STM32G0xx_HAL_Driver/Src/stm32g0xx_hal_adc_ex.c **** #include "stm32g0xx_hal.h"
  37:Drivers/STM32G0xx_HAL_Driver/Src/stm32g0xx_hal_adc_ex.c **** 
  38:Drivers/STM32G0xx_HAL_Driver/Src/stm32g0xx_hal_adc_ex.c **** /** @addtogroup STM32G0xx_HAL_Driver
  39:Drivers/STM32G0xx_HAL_Driver/Src/stm32g0xx_hal_adc_ex.c ****   * @{
  40:Drivers/STM32G0xx_HAL_Driver/Src/stm32g0xx_hal_adc_ex.c ****   */
  41:Drivers/STM32G0xx_HAL_Driver/Src/stm32g0xx_hal_adc_ex.c **** 
  42:Drivers/STM32G0xx_HAL_Driver/Src/stm32g0xx_hal_adc_ex.c **** /** @defgroup ADCEx ADCEx
  43:Drivers/STM32G0xx_HAL_Driver/Src/stm32g0xx_hal_adc_ex.c ****   * @brief ADC Extended HAL module driver
  44:Drivers/STM32G0xx_HAL_Driver/Src/stm32g0xx_hal_adc_ex.c ****   * @{
  45:Drivers/STM32G0xx_HAL_Driver/Src/stm32g0xx_hal_adc_ex.c ****   */
  46:Drivers/STM32G0xx_HAL_Driver/Src/stm32g0xx_hal_adc_ex.c **** 
  47:Drivers/STM32G0xx_HAL_Driver/Src/stm32g0xx_hal_adc_ex.c **** #ifdef HAL_ADC_MODULE_ENABLED
  48:Drivers/STM32G0xx_HAL_Driver/Src/stm32g0xx_hal_adc_ex.c **** 
  49:Drivers/STM32G0xx_HAL_Driver/Src/stm32g0xx_hal_adc_ex.c **** /* Private typedef -----------------------------------------------------------*/
  50:Drivers/STM32G0xx_HAL_Driver/Src/stm32g0xx_hal_adc_ex.c **** /* Private define ------------------------------------------------------------*/
  51:Drivers/STM32G0xx_HAL_Driver/Src/stm32g0xx_hal_adc_ex.c **** 
  52:Drivers/STM32G0xx_HAL_Driver/Src/stm32g0xx_hal_adc_ex.c **** /** @defgroup ADCEx_Private_Constants ADC Extended Private Constants
  53:Drivers/STM32G0xx_HAL_Driver/Src/stm32g0xx_hal_adc_ex.c ****   * @{
  54:Drivers/STM32G0xx_HAL_Driver/Src/stm32g0xx_hal_adc_ex.c ****   */
  55:Drivers/STM32G0xx_HAL_Driver/Src/stm32g0xx_hal_adc_ex.c **** 
  56:Drivers/STM32G0xx_HAL_Driver/Src/stm32g0xx_hal_adc_ex.c **** /* Fixed timeout value for ADC calibration.                                   */
  57:Drivers/STM32G0xx_HAL_Driver/Src/stm32g0xx_hal_adc_ex.c **** /* Values defined to be higher than worst cases: maximum ratio between ADC    */
  58:Drivers/STM32G0xx_HAL_Driver/Src/stm32g0xx_hal_adc_ex.c **** /* and CPU clock frequencies.                                                 */
  59:Drivers/STM32G0xx_HAL_Driver/Src/stm32g0xx_hal_adc_ex.c **** /* Example of profile low frequency : ADC frequency at 31.25kHz (ADC clock    */
  60:Drivers/STM32G0xx_HAL_Driver/Src/stm32g0xx_hal_adc_ex.c **** /* source PLL 8MHz, ADC clock prescaler 256), CPU frequency 52MHz.            */
  61:Drivers/STM32G0xx_HAL_Driver/Src/stm32g0xx_hal_adc_ex.c **** /* Calibration time max = 116 / fADC (refer to datasheet)                     */
  62:Drivers/STM32G0xx_HAL_Driver/Src/stm32g0xx_hal_adc_ex.c **** /*                      = 193 024 CPU cycles                                  */
  63:Drivers/STM32G0xx_HAL_Driver/Src/stm32g0xx_hal_adc_ex.c **** #define ADC_CALIBRATION_TIMEOUT         (193024UL)   /*!< ADC calibration time-out value (unit: CPU
  64:Drivers/STM32G0xx_HAL_Driver/Src/stm32g0xx_hal_adc_ex.c **** 
  65:Drivers/STM32G0xx_HAL_Driver/Src/stm32g0xx_hal_adc_ex.c **** /**
  66:Drivers/STM32G0xx_HAL_Driver/Src/stm32g0xx_hal_adc_ex.c ****   * @}
  67:Drivers/STM32G0xx_HAL_Driver/Src/stm32g0xx_hal_adc_ex.c ****   */
  68:Drivers/STM32G0xx_HAL_Driver/Src/stm32g0xx_hal_adc_ex.c **** 
  69:Drivers/STM32G0xx_HAL_Driver/Src/stm32g0xx_hal_adc_ex.c **** /* Private macro -------------------------------------------------------------*/
  70:Drivers/STM32G0xx_HAL_Driver/Src/stm32g0xx_hal_adc_ex.c **** /* Private variables ---------------------------------------------------------*/
  71:Drivers/STM32G0xx_HAL_Driver/Src/stm32g0xx_hal_adc_ex.c **** /* Private function prototypes -----------------------------------------------*/
  72:Drivers/STM32G0xx_HAL_Driver/Src/stm32g0xx_hal_adc_ex.c **** /* Exported functions --------------------------------------------------------*/
  73:Drivers/STM32G0xx_HAL_Driver/Src/stm32g0xx_hal_adc_ex.c **** 
  74:Drivers/STM32G0xx_HAL_Driver/Src/stm32g0xx_hal_adc_ex.c **** /** @defgroup ADCEx_Exported_Functions ADC Extended Exported Functions
  75:Drivers/STM32G0xx_HAL_Driver/Src/stm32g0xx_hal_adc_ex.c ****   * @{
  76:Drivers/STM32G0xx_HAL_Driver/Src/stm32g0xx_hal_adc_ex.c ****   */
  77:Drivers/STM32G0xx_HAL_Driver/Src/stm32g0xx_hal_adc_ex.c **** 
  78:Drivers/STM32G0xx_HAL_Driver/Src/stm32g0xx_hal_adc_ex.c **** /** @defgroup ADCEx_Exported_Functions_Group1 Extended Input and Output operation functions
  79:Drivers/STM32G0xx_HAL_Driver/Src/stm32g0xx_hal_adc_ex.c ****   * @brief    Extended IO operation functions
  80:Drivers/STM32G0xx_HAL_Driver/Src/stm32g0xx_hal_adc_ex.c ****   *
  81:Drivers/STM32G0xx_HAL_Driver/Src/stm32g0xx_hal_adc_ex.c **** @verbatim
  82:Drivers/STM32G0xx_HAL_Driver/Src/stm32g0xx_hal_adc_ex.c ****  ===============================================================================
  83:Drivers/STM32G0xx_HAL_Driver/Src/stm32g0xx_hal_adc_ex.c ****                       ##### IO operation functions #####
  84:Drivers/STM32G0xx_HAL_Driver/Src/stm32g0xx_hal_adc_ex.c ****  ===============================================================================
  85:Drivers/STM32G0xx_HAL_Driver/Src/stm32g0xx_hal_adc_ex.c ****     [..]  This section provides functions allowing to:
  86:Drivers/STM32G0xx_HAL_Driver/Src/stm32g0xx_hal_adc_ex.c **** 
  87:Drivers/STM32G0xx_HAL_Driver/Src/stm32g0xx_hal_adc_ex.c ****       (+) Perform the ADC self-calibration.
  88:Drivers/STM32G0xx_HAL_Driver/Src/stm32g0xx_hal_adc_ex.c ****       (+) Get calibration factors.
ARM GAS  /tmp/ccAd34n9.s 			page 3


  89:Drivers/STM32G0xx_HAL_Driver/Src/stm32g0xx_hal_adc_ex.c ****       (+) Set calibration factors.
  90:Drivers/STM32G0xx_HAL_Driver/Src/stm32g0xx_hal_adc_ex.c **** 
  91:Drivers/STM32G0xx_HAL_Driver/Src/stm32g0xx_hal_adc_ex.c **** @endverbatim
  92:Drivers/STM32G0xx_HAL_Driver/Src/stm32g0xx_hal_adc_ex.c ****   * @{
  93:Drivers/STM32G0xx_HAL_Driver/Src/stm32g0xx_hal_adc_ex.c ****   */
  94:Drivers/STM32G0xx_HAL_Driver/Src/stm32g0xx_hal_adc_ex.c **** 
  95:Drivers/STM32G0xx_HAL_Driver/Src/stm32g0xx_hal_adc_ex.c **** /**
  96:Drivers/STM32G0xx_HAL_Driver/Src/stm32g0xx_hal_adc_ex.c ****   * @brief  Perform an ADC automatic self-calibration
  97:Drivers/STM32G0xx_HAL_Driver/Src/stm32g0xx_hal_adc_ex.c ****   *         Calibration prerequisite: ADC must be disabled (execute this
  98:Drivers/STM32G0xx_HAL_Driver/Src/stm32g0xx_hal_adc_ex.c ****   *         function before HAL_ADC_Start() or after HAL_ADC_Stop() ).
  99:Drivers/STM32G0xx_HAL_Driver/Src/stm32g0xx_hal_adc_ex.c ****   * @note   Calibration factor can be read after calibration, using function
 100:Drivers/STM32G0xx_HAL_Driver/Src/stm32g0xx_hal_adc_ex.c ****   *         HAL_ADC_GetValue() (value on 7 bits: from DR[6;0]).
 101:Drivers/STM32G0xx_HAL_Driver/Src/stm32g0xx_hal_adc_ex.c ****   * @param  hadc       ADC handle
 102:Drivers/STM32G0xx_HAL_Driver/Src/stm32g0xx_hal_adc_ex.c ****   * @retval HAL status
 103:Drivers/STM32G0xx_HAL_Driver/Src/stm32g0xx_hal_adc_ex.c ****   */
 104:Drivers/STM32G0xx_HAL_Driver/Src/stm32g0xx_hal_adc_ex.c **** HAL_StatusTypeDef HAL_ADCEx_Calibration_Start(ADC_HandleTypeDef *hadc)
 105:Drivers/STM32G0xx_HAL_Driver/Src/stm32g0xx_hal_adc_ex.c **** {
  28              		.loc 1 105 1 view -0
  29              		.cfi_startproc
  30              		@ args = 0, pretend = 0, frame = 8
  31              		@ frame_needed = 0, uses_anonymous_args = 0
  32              		.loc 1 105 1 is_stmt 0 view .LVU1
  33 0000 30B5     		push	{r4, r5, lr}
  34              	.LCFI0:
  35              		.cfi_def_cfa_offset 12
  36              		.cfi_offset 4, -12
  37              		.cfi_offset 5, -8
  38              		.cfi_offset 14, -4
  39 0002 83B0     		sub	sp, sp, #12
  40              	.LCFI1:
  41              		.cfi_def_cfa_offset 24
  42 0004 0400     		movs	r4, r0
 106:Drivers/STM32G0xx_HAL_Driver/Src/stm32g0xx_hal_adc_ex.c ****   HAL_StatusTypeDef tmp_hal_status;
  43              		.loc 1 106 3 is_stmt 1 view .LVU2
 107:Drivers/STM32G0xx_HAL_Driver/Src/stm32g0xx_hal_adc_ex.c ****   __IO uint32_t wait_loop_index = 0UL;
  44              		.loc 1 107 3 view .LVU3
  45              		.loc 1 107 17 is_stmt 0 view .LVU4
  46 0006 0023     		movs	r3, #0
  47 0008 0193     		str	r3, [sp, #4]
 108:Drivers/STM32G0xx_HAL_Driver/Src/stm32g0xx_hal_adc_ex.c ****   uint32_t backup_setting_adc_dma_transfer; /* Note: Variable not declared as volatile because regi
  48              		.loc 1 108 3 is_stmt 1 view .LVU5
 109:Drivers/STM32G0xx_HAL_Driver/Src/stm32g0xx_hal_adc_ex.c **** 
 110:Drivers/STM32G0xx_HAL_Driver/Src/stm32g0xx_hal_adc_ex.c ****   /* Check the parameters */
 111:Drivers/STM32G0xx_HAL_Driver/Src/stm32g0xx_hal_adc_ex.c ****   assert_param(IS_ADC_ALL_INSTANCE(hadc->Instance));
  49              		.loc 1 111 3 view .LVU6
 112:Drivers/STM32G0xx_HAL_Driver/Src/stm32g0xx_hal_adc_ex.c **** 
 113:Drivers/STM32G0xx_HAL_Driver/Src/stm32g0xx_hal_adc_ex.c ****   __HAL_LOCK(hadc);
  50              		.loc 1 113 3 view .LVU7
  51              		.loc 1 113 3 view .LVU8
  52 000a 5433     		adds	r3, r3, #84
  53 000c C35C     		ldrb	r3, [r0, r3]
  54 000e 012B     		cmp	r3, #1
  55 0010 44D0     		beq	.L7
  56              		.loc 1 113 3 discriminator 2 view .LVU9
  57 0012 0125     		movs	r5, #1
  58 0014 5423     		movs	r3, #84
  59 0016 C554     		strb	r5, [r0, r3]
ARM GAS  /tmp/ccAd34n9.s 			page 4


 114:Drivers/STM32G0xx_HAL_Driver/Src/stm32g0xx_hal_adc_ex.c **** 
 115:Drivers/STM32G0xx_HAL_Driver/Src/stm32g0xx_hal_adc_ex.c ****   /* Calibration prerequisite: ADC must be disabled. */
 116:Drivers/STM32G0xx_HAL_Driver/Src/stm32g0xx_hal_adc_ex.c **** 
 117:Drivers/STM32G0xx_HAL_Driver/Src/stm32g0xx_hal_adc_ex.c ****   /* Disable the ADC (if not already disabled) */
 118:Drivers/STM32G0xx_HAL_Driver/Src/stm32g0xx_hal_adc_ex.c ****   tmp_hal_status = ADC_Disable(hadc);
  60              		.loc 1 118 3 discriminator 2 view .LVU10
  61              		.loc 1 118 31 is_stmt 0 discriminator 2 view .LVU11
  62 0018 FFF7FEFF 		bl	ADC_Disable
  63              	.LVL1:
 119:Drivers/STM32G0xx_HAL_Driver/Src/stm32g0xx_hal_adc_ex.c **** 
 120:Drivers/STM32G0xx_HAL_Driver/Src/stm32g0xx_hal_adc_ex.c ****   /* Check if ADC is effectively disabled */
 121:Drivers/STM32G0xx_HAL_Driver/Src/stm32g0xx_hal_adc_ex.c ****   if (LL_ADC_IsEnabled(hadc->Instance) == 0UL)
  64              		.loc 1 121 3 is_stmt 1 discriminator 2 view .LVU12
  65              		.loc 1 121 23 is_stmt 0 discriminator 2 view .LVU13
  66 001c 2368     		ldr	r3, [r4]
  67              	.LVL2:
  68              	.LBB14:
  69              	.LBI14:
  70              		.file 2 "Drivers/STM32G0xx_HAL_Driver/Inc/stm32g0xx_ll_adc.h"
   1:Drivers/STM32G0xx_HAL_Driver/Inc/stm32g0xx_ll_adc.h **** /**
   2:Drivers/STM32G0xx_HAL_Driver/Inc/stm32g0xx_ll_adc.h ****   ******************************************************************************
   3:Drivers/STM32G0xx_HAL_Driver/Inc/stm32g0xx_ll_adc.h ****   * @file    stm32g0xx_ll_adc.h
   4:Drivers/STM32G0xx_HAL_Driver/Inc/stm32g0xx_ll_adc.h ****   * @author  MCD Application Team
   5:Drivers/STM32G0xx_HAL_Driver/Inc/stm32g0xx_ll_adc.h ****   * @brief   Header file of ADC LL module.
   6:Drivers/STM32G0xx_HAL_Driver/Inc/stm32g0xx_ll_adc.h ****   ******************************************************************************
   7:Drivers/STM32G0xx_HAL_Driver/Inc/stm32g0xx_ll_adc.h ****   * @attention
   8:Drivers/STM32G0xx_HAL_Driver/Inc/stm32g0xx_ll_adc.h ****   *
   9:Drivers/STM32G0xx_HAL_Driver/Inc/stm32g0xx_ll_adc.h ****   * <h2><center>&copy; Copyright (c) 2018 STMicroelectronics.
  10:Drivers/STM32G0xx_HAL_Driver/Inc/stm32g0xx_ll_adc.h ****   * All rights reserved.</center></h2>
  11:Drivers/STM32G0xx_HAL_Driver/Inc/stm32g0xx_ll_adc.h ****   *
  12:Drivers/STM32G0xx_HAL_Driver/Inc/stm32g0xx_ll_adc.h ****   * This software component is licensed by ST under BSD 3-Clause license,
  13:Drivers/STM32G0xx_HAL_Driver/Inc/stm32g0xx_ll_adc.h ****   * the "License"; You may not use this file except in compliance with the
  14:Drivers/STM32G0xx_HAL_Driver/Inc/stm32g0xx_ll_adc.h ****   * License. You may obtain a copy of the License at:
  15:Drivers/STM32G0xx_HAL_Driver/Inc/stm32g0xx_ll_adc.h ****   *                        opensource.org/licenses/BSD-3-Clause
  16:Drivers/STM32G0xx_HAL_Driver/Inc/stm32g0xx_ll_adc.h ****   *
  17:Drivers/STM32G0xx_HAL_Driver/Inc/stm32g0xx_ll_adc.h ****   ******************************************************************************
  18:Drivers/STM32G0xx_HAL_Driver/Inc/stm32g0xx_ll_adc.h ****   */
  19:Drivers/STM32G0xx_HAL_Driver/Inc/stm32g0xx_ll_adc.h **** 
  20:Drivers/STM32G0xx_HAL_Driver/Inc/stm32g0xx_ll_adc.h **** /* Define to prevent recursive inclusion -------------------------------------*/
  21:Drivers/STM32G0xx_HAL_Driver/Inc/stm32g0xx_ll_adc.h **** #ifndef STM32G0xx_LL_ADC_H
  22:Drivers/STM32G0xx_HAL_Driver/Inc/stm32g0xx_ll_adc.h **** #define STM32G0xx_LL_ADC_H
  23:Drivers/STM32G0xx_HAL_Driver/Inc/stm32g0xx_ll_adc.h **** 
  24:Drivers/STM32G0xx_HAL_Driver/Inc/stm32g0xx_ll_adc.h **** #ifdef __cplusplus
  25:Drivers/STM32G0xx_HAL_Driver/Inc/stm32g0xx_ll_adc.h **** extern "C" {
  26:Drivers/STM32G0xx_HAL_Driver/Inc/stm32g0xx_ll_adc.h **** #endif
  27:Drivers/STM32G0xx_HAL_Driver/Inc/stm32g0xx_ll_adc.h **** 
  28:Drivers/STM32G0xx_HAL_Driver/Inc/stm32g0xx_ll_adc.h **** /* Includes ------------------------------------------------------------------*/
  29:Drivers/STM32G0xx_HAL_Driver/Inc/stm32g0xx_ll_adc.h **** #include "stm32g0xx.h"
  30:Drivers/STM32G0xx_HAL_Driver/Inc/stm32g0xx_ll_adc.h **** 
  31:Drivers/STM32G0xx_HAL_Driver/Inc/stm32g0xx_ll_adc.h **** /** @addtogroup STM32G0xx_LL_Driver
  32:Drivers/STM32G0xx_HAL_Driver/Inc/stm32g0xx_ll_adc.h ****   * @{
  33:Drivers/STM32G0xx_HAL_Driver/Inc/stm32g0xx_ll_adc.h ****   */
  34:Drivers/STM32G0xx_HAL_Driver/Inc/stm32g0xx_ll_adc.h **** 
  35:Drivers/STM32G0xx_HAL_Driver/Inc/stm32g0xx_ll_adc.h **** #if defined (ADC1)
  36:Drivers/STM32G0xx_HAL_Driver/Inc/stm32g0xx_ll_adc.h **** 
  37:Drivers/STM32G0xx_HAL_Driver/Inc/stm32g0xx_ll_adc.h **** /** @defgroup ADC_LL ADC
  38:Drivers/STM32G0xx_HAL_Driver/Inc/stm32g0xx_ll_adc.h ****   * @{
ARM GAS  /tmp/ccAd34n9.s 			page 5


  39:Drivers/STM32G0xx_HAL_Driver/Inc/stm32g0xx_ll_adc.h ****   */
  40:Drivers/STM32G0xx_HAL_Driver/Inc/stm32g0xx_ll_adc.h **** 
  41:Drivers/STM32G0xx_HAL_Driver/Inc/stm32g0xx_ll_adc.h **** /* Private types -------------------------------------------------------------*/
  42:Drivers/STM32G0xx_HAL_Driver/Inc/stm32g0xx_ll_adc.h **** /* Private variables ---------------------------------------------------------*/
  43:Drivers/STM32G0xx_HAL_Driver/Inc/stm32g0xx_ll_adc.h **** 
  44:Drivers/STM32G0xx_HAL_Driver/Inc/stm32g0xx_ll_adc.h **** /* Private constants ---------------------------------------------------------*/
  45:Drivers/STM32G0xx_HAL_Driver/Inc/stm32g0xx_ll_adc.h **** /** @defgroup ADC_LL_Private_Constants ADC Private Constants
  46:Drivers/STM32G0xx_HAL_Driver/Inc/stm32g0xx_ll_adc.h ****   * @{
  47:Drivers/STM32G0xx_HAL_Driver/Inc/stm32g0xx_ll_adc.h ****   */
  48:Drivers/STM32G0xx_HAL_Driver/Inc/stm32g0xx_ll_adc.h **** 
  49:Drivers/STM32G0xx_HAL_Driver/Inc/stm32g0xx_ll_adc.h **** /* Internal mask for ADC group regular sequencer:                             */
  50:Drivers/STM32G0xx_HAL_Driver/Inc/stm32g0xx_ll_adc.h **** /* To select into literal LL_ADC_REG_RANK_x the relevant bits for:            */
  51:Drivers/STM32G0xx_HAL_Driver/Inc/stm32g0xx_ll_adc.h **** /* - sequencer rank bits position into the selected register                  */
  52:Drivers/STM32G0xx_HAL_Driver/Inc/stm32g0xx_ll_adc.h **** 
  53:Drivers/STM32G0xx_HAL_Driver/Inc/stm32g0xx_ll_adc.h **** #define ADC_REG_RANK_ID_SQRX_MASK          (ADC_CHANNEL_ID_NUMBER_MASK_POSBIT0)
  54:Drivers/STM32G0xx_HAL_Driver/Inc/stm32g0xx_ll_adc.h **** 
  55:Drivers/STM32G0xx_HAL_Driver/Inc/stm32g0xx_ll_adc.h **** /* Definition of ADC group regular sequencer bits information to be inserted  */
  56:Drivers/STM32G0xx_HAL_Driver/Inc/stm32g0xx_ll_adc.h **** /* into ADC group regular sequencer ranks literals definition.                */
  57:Drivers/STM32G0xx_HAL_Driver/Inc/stm32g0xx_ll_adc.h **** #define ADC_REG_RANK_1_SQRX_BITOFFSET_POS  ( 0UL) /* Equivalent to bitfield "ADC_CHSELR_SQ1" positi
  58:Drivers/STM32G0xx_HAL_Driver/Inc/stm32g0xx_ll_adc.h **** #define ADC_REG_RANK_2_SQRX_BITOFFSET_POS  ( 4UL) /* Equivalent to bitfield "ADC_CHSELR_SQ2" positi
  59:Drivers/STM32G0xx_HAL_Driver/Inc/stm32g0xx_ll_adc.h **** #define ADC_REG_RANK_3_SQRX_BITOFFSET_POS  ( 8UL) /* Equivalent to bitfield "ADC_CHSELR_SQ3" positi
  60:Drivers/STM32G0xx_HAL_Driver/Inc/stm32g0xx_ll_adc.h **** #define ADC_REG_RANK_4_SQRX_BITOFFSET_POS  (12UL) /* Equivalent to bitfield "ADC_CHSELR_SQ4" positi
  61:Drivers/STM32G0xx_HAL_Driver/Inc/stm32g0xx_ll_adc.h **** #define ADC_REG_RANK_5_SQRX_BITOFFSET_POS  (16UL) /* Equivalent to bitfield "ADC_CHSELR_SQ5" positi
  62:Drivers/STM32G0xx_HAL_Driver/Inc/stm32g0xx_ll_adc.h **** #define ADC_REG_RANK_6_SQRX_BITOFFSET_POS  (20UL) /* Equivalent to bitfield "ADC_CHSELR_SQ6" positi
  63:Drivers/STM32G0xx_HAL_Driver/Inc/stm32g0xx_ll_adc.h **** #define ADC_REG_RANK_7_SQRX_BITOFFSET_POS  (24UL) /* Equivalent to bitfield "ADC_CHSELR_SQ7" positi
  64:Drivers/STM32G0xx_HAL_Driver/Inc/stm32g0xx_ll_adc.h **** #define ADC_REG_RANK_8_SQRX_BITOFFSET_POS  (28UL) /* Equivalent to bitfield "ADC_CHSELR_SQ8" positi
  65:Drivers/STM32G0xx_HAL_Driver/Inc/stm32g0xx_ll_adc.h **** 
  66:Drivers/STM32G0xx_HAL_Driver/Inc/stm32g0xx_ll_adc.h **** 
  67:Drivers/STM32G0xx_HAL_Driver/Inc/stm32g0xx_ll_adc.h **** 
  68:Drivers/STM32G0xx_HAL_Driver/Inc/stm32g0xx_ll_adc.h **** /* Internal mask for ADC group regular trigger:                               */
  69:Drivers/STM32G0xx_HAL_Driver/Inc/stm32g0xx_ll_adc.h **** /* To select into literal LL_ADC_REG_TRIG_x the relevant bits for:            */
  70:Drivers/STM32G0xx_HAL_Driver/Inc/stm32g0xx_ll_adc.h **** /* - regular trigger source                                                   */
  71:Drivers/STM32G0xx_HAL_Driver/Inc/stm32g0xx_ll_adc.h **** /* - regular trigger edge                                                     */
  72:Drivers/STM32G0xx_HAL_Driver/Inc/stm32g0xx_ll_adc.h **** #define ADC_REG_TRIG_EXT_EDGE_DEFAULT       (ADC_CFGR1_EXTEN_0) /* Trigger edge set to rising edge 
  73:Drivers/STM32G0xx_HAL_Driver/Inc/stm32g0xx_ll_adc.h **** 
  74:Drivers/STM32G0xx_HAL_Driver/Inc/stm32g0xx_ll_adc.h **** /* Mask containing trigger source masks for each of possible                  */
  75:Drivers/STM32G0xx_HAL_Driver/Inc/stm32g0xx_ll_adc.h **** /* trigger edge selection duplicated with shifts [0; 4; 8; 12]                */
  76:Drivers/STM32G0xx_HAL_Driver/Inc/stm32g0xx_ll_adc.h **** /* corresponding to {SW start; ext trigger; ext trigger; ext trigger}.        */
  77:Drivers/STM32G0xx_HAL_Driver/Inc/stm32g0xx_ll_adc.h **** #define ADC_REG_TRIG_SOURCE_MASK            (((LL_ADC_REG_TRIG_SOFTWARE & ADC_CFGR1_EXTSEL) << (4U 
  78:Drivers/STM32G0xx_HAL_Driver/Inc/stm32g0xx_ll_adc.h ****                                              ((ADC_CFGR1_EXTSEL)                            << (4U 
  79:Drivers/STM32G0xx_HAL_Driver/Inc/stm32g0xx_ll_adc.h ****                                              ((ADC_CFGR1_EXTSEL)                            << (4U 
  80:Drivers/STM32G0xx_HAL_Driver/Inc/stm32g0xx_ll_adc.h ****                                              ((ADC_CFGR1_EXTSEL)                            << (4U 
  81:Drivers/STM32G0xx_HAL_Driver/Inc/stm32g0xx_ll_adc.h **** 
  82:Drivers/STM32G0xx_HAL_Driver/Inc/stm32g0xx_ll_adc.h **** /* Mask containing trigger edge masks for each of possible                    */
  83:Drivers/STM32G0xx_HAL_Driver/Inc/stm32g0xx_ll_adc.h **** /* trigger edge selection duplicated with shifts [0; 4; 8; 12]                */
  84:Drivers/STM32G0xx_HAL_Driver/Inc/stm32g0xx_ll_adc.h **** /* corresponding to {SW start; ext trigger; ext trigger; ext trigger}.        */
  85:Drivers/STM32G0xx_HAL_Driver/Inc/stm32g0xx_ll_adc.h **** #define ADC_REG_TRIG_EDGE_MASK              (((LL_ADC_REG_TRIG_SOFTWARE & ADC_CFGR1_EXTEN) << (4U *
  86:Drivers/STM32G0xx_HAL_Driver/Inc/stm32g0xx_ll_adc.h ****                                              ((ADC_REG_TRIG_EXT_EDGE_DEFAULT)              << (4U *
  87:Drivers/STM32G0xx_HAL_Driver/Inc/stm32g0xx_ll_adc.h ****                                              ((ADC_REG_TRIG_EXT_EDGE_DEFAULT)              << (4U *
  88:Drivers/STM32G0xx_HAL_Driver/Inc/stm32g0xx_ll_adc.h ****                                              ((ADC_REG_TRIG_EXT_EDGE_DEFAULT)              << (4U *
  89:Drivers/STM32G0xx_HAL_Driver/Inc/stm32g0xx_ll_adc.h **** 
  90:Drivers/STM32G0xx_HAL_Driver/Inc/stm32g0xx_ll_adc.h **** /* Definition of ADC group regular trigger bits information.                  */
  91:Drivers/STM32G0xx_HAL_Driver/Inc/stm32g0xx_ll_adc.h **** #define ADC_REG_TRIG_EXTSEL_BITOFFSET_POS  ( 6UL) /* Equivalent to bitfield "ADC_CFGR1_EXTSEL" posi
  92:Drivers/STM32G0xx_HAL_Driver/Inc/stm32g0xx_ll_adc.h **** #define ADC_REG_TRIG_EXTEN_BITOFFSET_POS   (10UL) /* Equivalent to bitfield "ADC_CFGR1_EXTEN" posit
  93:Drivers/STM32G0xx_HAL_Driver/Inc/stm32g0xx_ll_adc.h **** 
  94:Drivers/STM32G0xx_HAL_Driver/Inc/stm32g0xx_ll_adc.h **** 
  95:Drivers/STM32G0xx_HAL_Driver/Inc/stm32g0xx_ll_adc.h **** 
ARM GAS  /tmp/ccAd34n9.s 			page 6


  96:Drivers/STM32G0xx_HAL_Driver/Inc/stm32g0xx_ll_adc.h **** /* Internal mask for ADC channel:                                             */
  97:Drivers/STM32G0xx_HAL_Driver/Inc/stm32g0xx_ll_adc.h **** /* To select into literal LL_ADC_CHANNEL_x the relevant bits for:             */
  98:Drivers/STM32G0xx_HAL_Driver/Inc/stm32g0xx_ll_adc.h **** /* - channel identifier defined by number                                     */
  99:Drivers/STM32G0xx_HAL_Driver/Inc/stm32g0xx_ll_adc.h **** /* - channel identifier defined by bitfield                                   */
 100:Drivers/STM32G0xx_HAL_Driver/Inc/stm32g0xx_ll_adc.h **** /* - channel differentiation between external channels (connected to          */
 101:Drivers/STM32G0xx_HAL_Driver/Inc/stm32g0xx_ll_adc.h **** /*   GPIO pins) and internal channels (connected to internal paths)           */
 102:Drivers/STM32G0xx_HAL_Driver/Inc/stm32g0xx_ll_adc.h **** #define ADC_CHANNEL_ID_NUMBER_MASK         (ADC_CFGR1_AWD1CH)
 103:Drivers/STM32G0xx_HAL_Driver/Inc/stm32g0xx_ll_adc.h **** #define ADC_CHANNEL_ID_BITFIELD_MASK       (ADC_CHSELR_CHSEL)
 104:Drivers/STM32G0xx_HAL_Driver/Inc/stm32g0xx_ll_adc.h **** #define ADC_CHANNEL_ID_NUMBER_MASK_SEQ     (ADC_CHSELR_SQ1 << ADC_CHANNEL_ID_NUMBER_BITOFFSET_POS) 
 105:Drivers/STM32G0xx_HAL_Driver/Inc/stm32g0xx_ll_adc.h **** #define ADC_CHANNEL_ID_NUMBER_BITOFFSET_POS (26UL)/* Equivalent to bitfield "ADC_CHANNEL_ID_NUMBER_
 106:Drivers/STM32G0xx_HAL_Driver/Inc/stm32g0xx_ll_adc.h **** #define ADC_CHANNEL_ID_MASK                (ADC_CHANNEL_ID_NUMBER_MASK | ADC_CHANNEL_ID_BITFIELD_MA
 107:Drivers/STM32G0xx_HAL_Driver/Inc/stm32g0xx_ll_adc.h ****                                             ADC_CHANNEL_ID_INTERNAL_CH_MASK)
 108:Drivers/STM32G0xx_HAL_Driver/Inc/stm32g0xx_ll_adc.h **** /* Equivalent mask of ADC_CHANNEL_NUMBER_MASK aligned on register LSB (bit 0) */
 109:Drivers/STM32G0xx_HAL_Driver/Inc/stm32g0xx_ll_adc.h **** #define ADC_CHANNEL_ID_NUMBER_MASK_POSBIT0 (0x0000001FUL) /* Equivalent to shift: (ADC_CHANNEL_NUMB
 110:Drivers/STM32G0xx_HAL_Driver/Inc/stm32g0xx_ll_adc.h **** 
 111:Drivers/STM32G0xx_HAL_Driver/Inc/stm32g0xx_ll_adc.h **** /* Channel differentiation between external and internal channels */
 112:Drivers/STM32G0xx_HAL_Driver/Inc/stm32g0xx_ll_adc.h **** #define ADC_CHANNEL_ID_INTERNAL_CH         (0x80000000UL) /* Marker of internal channel */
 113:Drivers/STM32G0xx_HAL_Driver/Inc/stm32g0xx_ll_adc.h **** #define ADC_CHANNEL_ID_INTERNAL_CH_MASK    (ADC_CHANNEL_ID_INTERNAL_CH)
 114:Drivers/STM32G0xx_HAL_Driver/Inc/stm32g0xx_ll_adc.h **** 
 115:Drivers/STM32G0xx_HAL_Driver/Inc/stm32g0xx_ll_adc.h **** /* Definition of channels ID number information to be inserted into           */
 116:Drivers/STM32G0xx_HAL_Driver/Inc/stm32g0xx_ll_adc.h **** /* channels literals definition.                                              */
 117:Drivers/STM32G0xx_HAL_Driver/Inc/stm32g0xx_ll_adc.h **** #define ADC_CHANNEL_0_NUMBER               (0x00000000UL)
 118:Drivers/STM32G0xx_HAL_Driver/Inc/stm32g0xx_ll_adc.h **** #define ADC_CHANNEL_1_NUMBER               (ADC_CFGR1_AWD1CH_0)
 119:Drivers/STM32G0xx_HAL_Driver/Inc/stm32g0xx_ll_adc.h **** #define ADC_CHANNEL_2_NUMBER               (ADC_CFGR1_AWD1CH_1)
 120:Drivers/STM32G0xx_HAL_Driver/Inc/stm32g0xx_ll_adc.h **** #define ADC_CHANNEL_3_NUMBER               (ADC_CFGR1_AWD1CH_1 | ADC_CFGR1_AWD1CH_0)
 121:Drivers/STM32G0xx_HAL_Driver/Inc/stm32g0xx_ll_adc.h **** #define ADC_CHANNEL_4_NUMBER               (ADC_CFGR1_AWD1CH_2)
 122:Drivers/STM32G0xx_HAL_Driver/Inc/stm32g0xx_ll_adc.h **** #define ADC_CHANNEL_5_NUMBER               (ADC_CFGR1_AWD1CH_2 | ADC_CFGR1_AWD1CH_0)
 123:Drivers/STM32G0xx_HAL_Driver/Inc/stm32g0xx_ll_adc.h **** #define ADC_CHANNEL_6_NUMBER               (ADC_CFGR1_AWD1CH_2 | ADC_CFGR1_AWD1CH_1)
 124:Drivers/STM32G0xx_HAL_Driver/Inc/stm32g0xx_ll_adc.h **** #define ADC_CHANNEL_7_NUMBER               (ADC_CFGR1_AWD1CH_2 | ADC_CFGR1_AWD1CH_1 | ADC_CFGR1_AWD
 125:Drivers/STM32G0xx_HAL_Driver/Inc/stm32g0xx_ll_adc.h **** #define ADC_CHANNEL_8_NUMBER               (ADC_CFGR1_AWD1CH_3)
 126:Drivers/STM32G0xx_HAL_Driver/Inc/stm32g0xx_ll_adc.h **** #define ADC_CHANNEL_9_NUMBER               (ADC_CFGR1_AWD1CH_3 | ADC_CFGR1_AWD1CH_0)
 127:Drivers/STM32G0xx_HAL_Driver/Inc/stm32g0xx_ll_adc.h **** #define ADC_CHANNEL_10_NUMBER              (ADC_CFGR1_AWD1CH_3 | ADC_CFGR1_AWD1CH_1)
 128:Drivers/STM32G0xx_HAL_Driver/Inc/stm32g0xx_ll_adc.h **** #define ADC_CHANNEL_11_NUMBER              (ADC_CFGR1_AWD1CH_3 | ADC_CFGR1_AWD1CH_1 | ADC_CFGR1_AWD
 129:Drivers/STM32G0xx_HAL_Driver/Inc/stm32g0xx_ll_adc.h **** #define ADC_CHANNEL_12_NUMBER              (ADC_CFGR1_AWD1CH_3 | ADC_CFGR1_AWD1CH_2)
 130:Drivers/STM32G0xx_HAL_Driver/Inc/stm32g0xx_ll_adc.h **** #define ADC_CHANNEL_13_NUMBER              (ADC_CFGR1_AWD1CH_3 | ADC_CFGR1_AWD1CH_2 | ADC_CFGR1_AWD
 131:Drivers/STM32G0xx_HAL_Driver/Inc/stm32g0xx_ll_adc.h **** #define ADC_CHANNEL_14_NUMBER              (ADC_CFGR1_AWD1CH_3 | ADC_CFGR1_AWD1CH_2 | ADC_CFGR1_AWD
 132:Drivers/STM32G0xx_HAL_Driver/Inc/stm32g0xx_ll_adc.h **** #define ADC_CHANNEL_15_NUMBER              (ADC_CFGR1_AWD1CH_3 | ADC_CFGR1_AWD1CH_2 | \
 133:Drivers/STM32G0xx_HAL_Driver/Inc/stm32g0xx_ll_adc.h ****                                             ADC_CFGR1_AWD1CH_1 | ADC_CFGR1_AWD1CH_0)
 134:Drivers/STM32G0xx_HAL_Driver/Inc/stm32g0xx_ll_adc.h **** #define ADC_CHANNEL_16_NUMBER              (ADC_CFGR1_AWD1CH_4)
 135:Drivers/STM32G0xx_HAL_Driver/Inc/stm32g0xx_ll_adc.h **** #define ADC_CHANNEL_17_NUMBER              (ADC_CFGR1_AWD1CH_4 | ADC_CFGR1_AWD1CH_0)
 136:Drivers/STM32G0xx_HAL_Driver/Inc/stm32g0xx_ll_adc.h **** #define ADC_CHANNEL_18_NUMBER              (ADC_CFGR1_AWD1CH_4 | ADC_CFGR1_AWD1CH_1)
 137:Drivers/STM32G0xx_HAL_Driver/Inc/stm32g0xx_ll_adc.h **** 
 138:Drivers/STM32G0xx_HAL_Driver/Inc/stm32g0xx_ll_adc.h **** /* Definition of channels ID bitfield information to be inserted into         */
 139:Drivers/STM32G0xx_HAL_Driver/Inc/stm32g0xx_ll_adc.h **** /* channels literals definition.                                              */
 140:Drivers/STM32G0xx_HAL_Driver/Inc/stm32g0xx_ll_adc.h **** #define ADC_CHANNEL_0_BITFIELD             (ADC_CHSELR_CHSEL0)
 141:Drivers/STM32G0xx_HAL_Driver/Inc/stm32g0xx_ll_adc.h **** #define ADC_CHANNEL_1_BITFIELD             (ADC_CHSELR_CHSEL1)
 142:Drivers/STM32G0xx_HAL_Driver/Inc/stm32g0xx_ll_adc.h **** #define ADC_CHANNEL_2_BITFIELD             (ADC_CHSELR_CHSEL2)
 143:Drivers/STM32G0xx_HAL_Driver/Inc/stm32g0xx_ll_adc.h **** #define ADC_CHANNEL_3_BITFIELD             (ADC_CHSELR_CHSEL3)
 144:Drivers/STM32G0xx_HAL_Driver/Inc/stm32g0xx_ll_adc.h **** #define ADC_CHANNEL_4_BITFIELD             (ADC_CHSELR_CHSEL4)
 145:Drivers/STM32G0xx_HAL_Driver/Inc/stm32g0xx_ll_adc.h **** #define ADC_CHANNEL_5_BITFIELD             (ADC_CHSELR_CHSEL5)
 146:Drivers/STM32G0xx_HAL_Driver/Inc/stm32g0xx_ll_adc.h **** #define ADC_CHANNEL_6_BITFIELD             (ADC_CHSELR_CHSEL6)
 147:Drivers/STM32G0xx_HAL_Driver/Inc/stm32g0xx_ll_adc.h **** #define ADC_CHANNEL_7_BITFIELD             (ADC_CHSELR_CHSEL7)
 148:Drivers/STM32G0xx_HAL_Driver/Inc/stm32g0xx_ll_adc.h **** #define ADC_CHANNEL_8_BITFIELD             (ADC_CHSELR_CHSEL8)
 149:Drivers/STM32G0xx_HAL_Driver/Inc/stm32g0xx_ll_adc.h **** #define ADC_CHANNEL_9_BITFIELD             (ADC_CHSELR_CHSEL9)
 150:Drivers/STM32G0xx_HAL_Driver/Inc/stm32g0xx_ll_adc.h **** #define ADC_CHANNEL_10_BITFIELD            (ADC_CHSELR_CHSEL10)
 151:Drivers/STM32G0xx_HAL_Driver/Inc/stm32g0xx_ll_adc.h **** #define ADC_CHANNEL_11_BITFIELD            (ADC_CHSELR_CHSEL11)
 152:Drivers/STM32G0xx_HAL_Driver/Inc/stm32g0xx_ll_adc.h **** #define ADC_CHANNEL_12_BITFIELD            (ADC_CHSELR_CHSEL12)
ARM GAS  /tmp/ccAd34n9.s 			page 7


 153:Drivers/STM32G0xx_HAL_Driver/Inc/stm32g0xx_ll_adc.h **** #define ADC_CHANNEL_13_BITFIELD            (ADC_CHSELR_CHSEL13)
 154:Drivers/STM32G0xx_HAL_Driver/Inc/stm32g0xx_ll_adc.h **** #define ADC_CHANNEL_14_BITFIELD            (ADC_CHSELR_CHSEL14)
 155:Drivers/STM32G0xx_HAL_Driver/Inc/stm32g0xx_ll_adc.h **** #define ADC_CHANNEL_15_BITFIELD            (ADC_CHSELR_CHSEL15)
 156:Drivers/STM32G0xx_HAL_Driver/Inc/stm32g0xx_ll_adc.h **** #define ADC_CHANNEL_16_BITFIELD            (ADC_CHSELR_CHSEL16)
 157:Drivers/STM32G0xx_HAL_Driver/Inc/stm32g0xx_ll_adc.h **** #define ADC_CHANNEL_17_BITFIELD            (ADC_CHSELR_CHSEL17)
 158:Drivers/STM32G0xx_HAL_Driver/Inc/stm32g0xx_ll_adc.h **** #define ADC_CHANNEL_18_BITFIELD            (ADC_CHSELR_CHSEL18)
 159:Drivers/STM32G0xx_HAL_Driver/Inc/stm32g0xx_ll_adc.h **** 
 160:Drivers/STM32G0xx_HAL_Driver/Inc/stm32g0xx_ll_adc.h **** /* Internal mask for ADC channel sampling time:                               */
 161:Drivers/STM32G0xx_HAL_Driver/Inc/stm32g0xx_ll_adc.h **** /* To select into literals LL_ADC_SAMPLINGTIME_x                              */
 162:Drivers/STM32G0xx_HAL_Driver/Inc/stm32g0xx_ll_adc.h **** /* the relevant bits for:                                                     */
 163:Drivers/STM32G0xx_HAL_Driver/Inc/stm32g0xx_ll_adc.h **** /* (concatenation of multiple bits used in register SMPR)                     */
 164:Drivers/STM32G0xx_HAL_Driver/Inc/stm32g0xx_ll_adc.h **** /* - ADC channels sampling time: setting channel wise, to map each channel    */
 165:Drivers/STM32G0xx_HAL_Driver/Inc/stm32g0xx_ll_adc.h **** /*   on one of the common sampling time available.                            */
 166:Drivers/STM32G0xx_HAL_Driver/Inc/stm32g0xx_ll_adc.h **** /* - ADC channels common sampling time: set a sampling time into one of the   */
 167:Drivers/STM32G0xx_HAL_Driver/Inc/stm32g0xx_ll_adc.h **** /*   common sampling time available.                                          */
 168:Drivers/STM32G0xx_HAL_Driver/Inc/stm32g0xx_ll_adc.h **** #define ADC_SAMPLING_TIME_CH_MASK          (ADC_CHANNEL_ID_BITFIELD_MASK << ADC_SMPR_SMPSEL0_BITOFF
 169:Drivers/STM32G0xx_HAL_Driver/Inc/stm32g0xx_ll_adc.h **** #define ADC_SAMPLING_TIME_SMP_MASK         (ADC_SMPR_SMP2 | ADC_SMPR_SMP1)
 170:Drivers/STM32G0xx_HAL_Driver/Inc/stm32g0xx_ll_adc.h **** #define ADC_SAMPLING_TIME_SMP_SHIFT_MASK   (ADC_SMPR_SMP2_BITOFFSET_POS | ADC_SMPR_SMP1_BITOFFSET_P
 171:Drivers/STM32G0xx_HAL_Driver/Inc/stm32g0xx_ll_adc.h **** 
 172:Drivers/STM32G0xx_HAL_Driver/Inc/stm32g0xx_ll_adc.h **** /* Internal mask for ADC analog watchdog:                                     */
 173:Drivers/STM32G0xx_HAL_Driver/Inc/stm32g0xx_ll_adc.h **** /* To select into literals LL_ADC_AWD_CHANNELx_xxx the relevant bits for:     */
 174:Drivers/STM32G0xx_HAL_Driver/Inc/stm32g0xx_ll_adc.h **** /* (concatenation of multiple bits used in different analog watchdogs,        */
 175:Drivers/STM32G0xx_HAL_Driver/Inc/stm32g0xx_ll_adc.h **** /* (feature of several watchdogs not available on all STM32 families)).       */
 176:Drivers/STM32G0xx_HAL_Driver/Inc/stm32g0xx_ll_adc.h **** /* - analog watchdog 1: monitored channel defined by number,                  */
 177:Drivers/STM32G0xx_HAL_Driver/Inc/stm32g0xx_ll_adc.h **** /*   selection of ADC group (ADC group regular).                              */
 178:Drivers/STM32G0xx_HAL_Driver/Inc/stm32g0xx_ll_adc.h **** /* - analog watchdog 2 and 3: monitored channel defined by bitfield, no       */
 179:Drivers/STM32G0xx_HAL_Driver/Inc/stm32g0xx_ll_adc.h **** /*   selection on groups.                                                     */
 180:Drivers/STM32G0xx_HAL_Driver/Inc/stm32g0xx_ll_adc.h **** 
 181:Drivers/STM32G0xx_HAL_Driver/Inc/stm32g0xx_ll_adc.h **** /* Internal register offset for ADC analog watchdog channel configuration */
 182:Drivers/STM32G0xx_HAL_Driver/Inc/stm32g0xx_ll_adc.h **** #define ADC_AWD_CR1_REGOFFSET              (0x00000000UL)
 183:Drivers/STM32G0xx_HAL_Driver/Inc/stm32g0xx_ll_adc.h **** #define ADC_AWD_CR2_REGOFFSET              (0x00100000UL)
 184:Drivers/STM32G0xx_HAL_Driver/Inc/stm32g0xx_ll_adc.h **** #define ADC_AWD_CR3_REGOFFSET              (0x00200000UL)
 185:Drivers/STM32G0xx_HAL_Driver/Inc/stm32g0xx_ll_adc.h **** 
 186:Drivers/STM32G0xx_HAL_Driver/Inc/stm32g0xx_ll_adc.h **** /* Register offset gap between AWD1 and AWD2-AWD3 configuration registers */
 187:Drivers/STM32G0xx_HAL_Driver/Inc/stm32g0xx_ll_adc.h **** /* (Set separately as ADC_AWD_CRX_REGOFFSET to spare 32 bits space */
 188:Drivers/STM32G0xx_HAL_Driver/Inc/stm32g0xx_ll_adc.h **** #define ADC_AWD_CR12_REGOFFSETGAP_MASK     (ADC_AWD2CR_AWD2CH_0)
 189:Drivers/STM32G0xx_HAL_Driver/Inc/stm32g0xx_ll_adc.h **** #define ADC_AWD_CR12_REGOFFSETGAP_VAL      (0x00000024UL)
 190:Drivers/STM32G0xx_HAL_Driver/Inc/stm32g0xx_ll_adc.h **** 
 191:Drivers/STM32G0xx_HAL_Driver/Inc/stm32g0xx_ll_adc.h **** #define ADC_AWD_CRX_REGOFFSET_MASK         (ADC_AWD_CR1_REGOFFSET | ADC_AWD_CR2_REGOFFSET | ADC_AWD
 192:Drivers/STM32G0xx_HAL_Driver/Inc/stm32g0xx_ll_adc.h **** #define ADC_AWD_CRX_REGOFFSET_BITOFFSET_POS (20UL)
 193:Drivers/STM32G0xx_HAL_Driver/Inc/stm32g0xx_ll_adc.h **** 
 194:Drivers/STM32G0xx_HAL_Driver/Inc/stm32g0xx_ll_adc.h **** #define ADC_AWD_CR1_CHANNEL_MASK           (ADC_CFGR1_AWD1CH | ADC_CFGR1_AWD1EN | ADC_CFGR1_AWD1SGL
 195:Drivers/STM32G0xx_HAL_Driver/Inc/stm32g0xx_ll_adc.h **** #define ADC_AWD_CR23_CHANNEL_MASK          (ADC_AWD2CR_AWD2CH)
 196:Drivers/STM32G0xx_HAL_Driver/Inc/stm32g0xx_ll_adc.h **** #define ADC_AWD_CR_ALL_CHANNEL_MASK        (ADC_AWD_CR1_CHANNEL_MASK | ADC_AWD_CR23_CHANNEL_MASK)
 197:Drivers/STM32G0xx_HAL_Driver/Inc/stm32g0xx_ll_adc.h **** 
 198:Drivers/STM32G0xx_HAL_Driver/Inc/stm32g0xx_ll_adc.h **** #define ADC_AWD_CRX_REGOFFSET_POS          (20UL) /* Position of bits ADC_AWD_CRx_REGOFFSET in ADC_
 199:Drivers/STM32G0xx_HAL_Driver/Inc/stm32g0xx_ll_adc.h **** 
 200:Drivers/STM32G0xx_HAL_Driver/Inc/stm32g0xx_ll_adc.h **** /* Internal register offset for ADC analog watchdog threshold configuration */
 201:Drivers/STM32G0xx_HAL_Driver/Inc/stm32g0xx_ll_adc.h **** #define ADC_AWD_TR1_REGOFFSET              (ADC_AWD_CR1_REGOFFSET)
 202:Drivers/STM32G0xx_HAL_Driver/Inc/stm32g0xx_ll_adc.h **** #define ADC_AWD_TR2_REGOFFSET              (ADC_AWD_CR2_REGOFFSET)
 203:Drivers/STM32G0xx_HAL_Driver/Inc/stm32g0xx_ll_adc.h **** #define ADC_AWD_TR3_REGOFFSET              (ADC_AWD_CR3_REGOFFSET + (1UL << ADC_AWD_CRX_REGOFFSET_B
 204:Drivers/STM32G0xx_HAL_Driver/Inc/stm32g0xx_ll_adc.h **** #define ADC_AWD_TRX_REGOFFSET_MASK         (ADC_AWD_TR1_REGOFFSET | ADC_AWD_TR2_REGOFFSET | ADC_AWD
 205:Drivers/STM32G0xx_HAL_Driver/Inc/stm32g0xx_ll_adc.h **** #define ADC_AWD_TRX_REGOFFSET_POS          (ADC_AWD_CRX_REGOFFSET_POS)     /* Position of bits ADC_
 206:Drivers/STM32G0xx_HAL_Driver/Inc/stm32g0xx_ll_adc.h **** #define ADC_AWD_TRX_BIT_HIGH_MASK          (0x00010000UL)                   /* Selection of 1 bit t
 207:Drivers/STM32G0xx_HAL_Driver/Inc/stm32g0xx_ll_adc.h **** #define ADC_AWD_TRX_BIT_HIGH_POS           (16UL)                           /* Selection of 1 bit t
 208:Drivers/STM32G0xx_HAL_Driver/Inc/stm32g0xx_ll_adc.h **** #define ADC_AWD_TRX_BIT_HIGH_SHIFT4        (ADC_AWD_TRX_BIT_HIGH_POS - 4UL) /* Shift of bit ADC_AWD
 209:Drivers/STM32G0xx_HAL_Driver/Inc/stm32g0xx_ll_adc.h **** #define ADC_AWD_TRX_REGOFFSET_BITOFFSET_POS (20UL)
ARM GAS  /tmp/ccAd34n9.s 			page 8


 210:Drivers/STM32G0xx_HAL_Driver/Inc/stm32g0xx_ll_adc.h **** 
 211:Drivers/STM32G0xx_HAL_Driver/Inc/stm32g0xx_ll_adc.h **** 
 212:Drivers/STM32G0xx_HAL_Driver/Inc/stm32g0xx_ll_adc.h **** 
 213:Drivers/STM32G0xx_HAL_Driver/Inc/stm32g0xx_ll_adc.h **** /* ADC registers bits positions */
 214:Drivers/STM32G0xx_HAL_Driver/Inc/stm32g0xx_ll_adc.h **** #define ADC_CFGR1_RES_BITOFFSET_POS        ( 3UL) /* Equivalent to bitfield "ADC_CFGR1_RES" positio
 215:Drivers/STM32G0xx_HAL_Driver/Inc/stm32g0xx_ll_adc.h **** #define ADC_CFGR1_AWDSGL_BITOFFSET_POS     (22UL) /* Equivalent to bitfield "ADC_CFGR1_AWDSGL" posi
 216:Drivers/STM32G0xx_HAL_Driver/Inc/stm32g0xx_ll_adc.h **** #define ADC_TR1_HT1_BITOFFSET_POS          (16UL) /* Equivalent to bitfield "ADC_TR1_HT1" position 
 217:Drivers/STM32G0xx_HAL_Driver/Inc/stm32g0xx_ll_adc.h **** #define ADC_CHSELR_CHSEL0_BITOFFSET_POS    ( 0UL) /* Equivalent to bitfield "ADC_CHSELR_CHSEL0" pos
 218:Drivers/STM32G0xx_HAL_Driver/Inc/stm32g0xx_ll_adc.h **** #define ADC_CHSELR_CHSEL1_BITOFFSET_POS    ( 1UL) /* Equivalent to bitfield "ADC_CHSELR_CHSEL1" pos
 219:Drivers/STM32G0xx_HAL_Driver/Inc/stm32g0xx_ll_adc.h **** #define ADC_CHSELR_CHSEL2_BITOFFSET_POS    ( 2UL) /* Equivalent to bitfield "ADC_CHSELR_CHSEL2" pos
 220:Drivers/STM32G0xx_HAL_Driver/Inc/stm32g0xx_ll_adc.h **** #define ADC_CHSELR_CHSEL3_BITOFFSET_POS    ( 3UL) /* Equivalent to bitfield "ADC_CHSELR_CHSEL3" pos
 221:Drivers/STM32G0xx_HAL_Driver/Inc/stm32g0xx_ll_adc.h **** #define ADC_CHSELR_CHSEL4_BITOFFSET_POS    ( 4UL) /* Equivalent to bitfield "ADC_CHSELR_CHSEL4" pos
 222:Drivers/STM32G0xx_HAL_Driver/Inc/stm32g0xx_ll_adc.h **** #define ADC_CHSELR_CHSEL5_BITOFFSET_POS    ( 5UL) /* Equivalent to bitfield "ADC_CHSELR_CHSEL5" pos
 223:Drivers/STM32G0xx_HAL_Driver/Inc/stm32g0xx_ll_adc.h **** #define ADC_CHSELR_CHSEL6_BITOFFSET_POS    ( 6UL) /* Equivalent to bitfield "ADC_CHSELR_CHSEL6" pos
 224:Drivers/STM32G0xx_HAL_Driver/Inc/stm32g0xx_ll_adc.h **** #define ADC_CHSELR_CHSEL7_BITOFFSET_POS    ( 7UL) /* Equivalent to bitfield "ADC_CHSELR_CHSEL7" pos
 225:Drivers/STM32G0xx_HAL_Driver/Inc/stm32g0xx_ll_adc.h **** #define ADC_CHSELR_CHSEL8_BITOFFSET_POS    ( 8UL) /* Equivalent to bitfield "ADC_CHSELR_CHSEL8" pos
 226:Drivers/STM32G0xx_HAL_Driver/Inc/stm32g0xx_ll_adc.h **** #define ADC_CHSELR_CHSEL9_BITOFFSET_POS    ( 9UL) /* Equivalent to bitfield "ADC_CHSELR_CHSEL9" pos
 227:Drivers/STM32G0xx_HAL_Driver/Inc/stm32g0xx_ll_adc.h **** #define ADC_CHSELR_CHSEL10_BITOFFSET_POS   (10UL) /* Equivalent to bitfield "ADC_CHSELR_CHSEL10" po
 228:Drivers/STM32G0xx_HAL_Driver/Inc/stm32g0xx_ll_adc.h **** #define ADC_CHSELR_CHSEL11_BITOFFSET_POS   (11UL) /* Equivalent to bitfield "ADC_CHSELR_CHSEL11" po
 229:Drivers/STM32G0xx_HAL_Driver/Inc/stm32g0xx_ll_adc.h **** #define ADC_CHSELR_CHSEL12_BITOFFSET_POS   (12UL) /* Equivalent to bitfield "ADC_CHSELR_CHSEL12" po
 230:Drivers/STM32G0xx_HAL_Driver/Inc/stm32g0xx_ll_adc.h **** #define ADC_CHSELR_CHSEL13_BITOFFSET_POS   (13UL) /* Equivalent to bitfield "ADC_CHSELR_CHSEL13" po
 231:Drivers/STM32G0xx_HAL_Driver/Inc/stm32g0xx_ll_adc.h **** #define ADC_CHSELR_CHSEL14_BITOFFSET_POS   (14UL) /* Equivalent to bitfield "ADC_CHSELR_CHSEL14" po
 232:Drivers/STM32G0xx_HAL_Driver/Inc/stm32g0xx_ll_adc.h **** #define ADC_CHSELR_CHSEL15_BITOFFSET_POS   (15UL) /* Equivalent to bitfield "ADC_CHSELR_CHSEL15" po
 233:Drivers/STM32G0xx_HAL_Driver/Inc/stm32g0xx_ll_adc.h **** #define ADC_CHSELR_CHSEL16_BITOFFSET_POS   (16UL) /* Equivalent to bitfield "ADC_CHSELR_CHSEL16" po
 234:Drivers/STM32G0xx_HAL_Driver/Inc/stm32g0xx_ll_adc.h **** #define ADC_CHSELR_CHSEL17_BITOFFSET_POS   (17UL) /* Equivalent to bitfield "ADC_CHSELR_CHSEL17" po
 235:Drivers/STM32G0xx_HAL_Driver/Inc/stm32g0xx_ll_adc.h **** #define ADC_CHSELR_CHSEL18_BITOFFSET_POS   (18UL) /* Equivalent to bitfield "ADC_CHSELR_CHSEL18" po
 236:Drivers/STM32G0xx_HAL_Driver/Inc/stm32g0xx_ll_adc.h **** #define ADC_SMPR_SMP1_BITOFFSET_POS        ( 0UL) /* Equivalent to bitfield "ADC_SMPR_SMP1" positio
 237:Drivers/STM32G0xx_HAL_Driver/Inc/stm32g0xx_ll_adc.h **** #define ADC_SMPR_SMP2_BITOFFSET_POS        ( 4UL) /* Equivalent to bitfield "ADC_SMPR_SMP2" positio
 238:Drivers/STM32G0xx_HAL_Driver/Inc/stm32g0xx_ll_adc.h **** #define ADC_SMPR_SMPSEL0_BITOFFSET_POS     ( 8UL) /* Equivalent to bitfield "ADC_SMPR_SMPSEL0" posi
 239:Drivers/STM32G0xx_HAL_Driver/Inc/stm32g0xx_ll_adc.h **** 
 240:Drivers/STM32G0xx_HAL_Driver/Inc/stm32g0xx_ll_adc.h **** 
 241:Drivers/STM32G0xx_HAL_Driver/Inc/stm32g0xx_ll_adc.h **** /* ADC registers bits groups */
 242:Drivers/STM32G0xx_HAL_Driver/Inc/stm32g0xx_ll_adc.h **** #define ADC_CR_BITS_PROPERTY_RS            (ADC_CR_ADCAL | ADC_CR_ADSTP | ADC_CR_ADSTART | ADC_CR_A
 243:Drivers/STM32G0xx_HAL_Driver/Inc/stm32g0xx_ll_adc.h **** 
 244:Drivers/STM32G0xx_HAL_Driver/Inc/stm32g0xx_ll_adc.h **** 
 245:Drivers/STM32G0xx_HAL_Driver/Inc/stm32g0xx_ll_adc.h **** /* ADC internal channels related definitions */
 246:Drivers/STM32G0xx_HAL_Driver/Inc/stm32g0xx_ll_adc.h **** /* Internal voltage reference VrefInt */
 247:Drivers/STM32G0xx_HAL_Driver/Inc/stm32g0xx_ll_adc.h **** #define VREFINT_CAL_ADDR                   ((uint16_t*) (0x1FFF75AAUL)) /* Internal voltage referen
 248:Drivers/STM32G0xx_HAL_Driver/Inc/stm32g0xx_ll_adc.h **** #define VREFINT_CAL_VREF                   ( 3000UL)                    /* Analog voltage reference
 249:Drivers/STM32G0xx_HAL_Driver/Inc/stm32g0xx_ll_adc.h **** /* Temperature sensor */
 250:Drivers/STM32G0xx_HAL_Driver/Inc/stm32g0xx_ll_adc.h **** #define TEMPSENSOR_CAL1_ADDR               ((uint16_t*) (0x1FFF75A8UL)) /* Internal temperature sen
 251:Drivers/STM32G0xx_HAL_Driver/Inc/stm32g0xx_ll_adc.h **** #define TEMPSENSOR_CAL2_ADDR               ((uint16_t*) (0x1FFF75CAUL)) /* Internal temperature sen
 252:Drivers/STM32G0xx_HAL_Driver/Inc/stm32g0xx_ll_adc.h **** #define TEMPSENSOR_CAL1_TEMP               (( int32_t)   30)            /* Internal temperature sen
 253:Drivers/STM32G0xx_HAL_Driver/Inc/stm32g0xx_ll_adc.h **** #define TEMPSENSOR_CAL2_TEMP               (( int32_t)  130)            /* Internal temperature sen
 254:Drivers/STM32G0xx_HAL_Driver/Inc/stm32g0xx_ll_adc.h **** #define TEMPSENSOR_CAL_VREFANALOG          ( 3000UL)                    /* Analog voltage reference
 255:Drivers/STM32G0xx_HAL_Driver/Inc/stm32g0xx_ll_adc.h **** 
 256:Drivers/STM32G0xx_HAL_Driver/Inc/stm32g0xx_ll_adc.h **** /**
 257:Drivers/STM32G0xx_HAL_Driver/Inc/stm32g0xx_ll_adc.h ****   * @}
 258:Drivers/STM32G0xx_HAL_Driver/Inc/stm32g0xx_ll_adc.h ****   */
 259:Drivers/STM32G0xx_HAL_Driver/Inc/stm32g0xx_ll_adc.h **** 
 260:Drivers/STM32G0xx_HAL_Driver/Inc/stm32g0xx_ll_adc.h **** 
 261:Drivers/STM32G0xx_HAL_Driver/Inc/stm32g0xx_ll_adc.h **** /* Private macros ------------------------------------------------------------*/
 262:Drivers/STM32G0xx_HAL_Driver/Inc/stm32g0xx_ll_adc.h **** /** @defgroup ADC_LL_Private_Macros ADC Private Macros
 263:Drivers/STM32G0xx_HAL_Driver/Inc/stm32g0xx_ll_adc.h ****   * @{
 264:Drivers/STM32G0xx_HAL_Driver/Inc/stm32g0xx_ll_adc.h ****   */
 265:Drivers/STM32G0xx_HAL_Driver/Inc/stm32g0xx_ll_adc.h **** 
 266:Drivers/STM32G0xx_HAL_Driver/Inc/stm32g0xx_ll_adc.h **** /**
ARM GAS  /tmp/ccAd34n9.s 			page 9


 267:Drivers/STM32G0xx_HAL_Driver/Inc/stm32g0xx_ll_adc.h ****   * @brief  Driver macro reserved for internal use: set a pointer to
 268:Drivers/STM32G0xx_HAL_Driver/Inc/stm32g0xx_ll_adc.h ****   *         a register from a register basis from which an offset
 269:Drivers/STM32G0xx_HAL_Driver/Inc/stm32g0xx_ll_adc.h ****   *         is applied.
 270:Drivers/STM32G0xx_HAL_Driver/Inc/stm32g0xx_ll_adc.h ****   * @param  __REG__ Register basis from which the offset is applied.
 271:Drivers/STM32G0xx_HAL_Driver/Inc/stm32g0xx_ll_adc.h ****   * @param  __REG_OFFFSET__ Offset to be applied (unit: number of registers).
 272:Drivers/STM32G0xx_HAL_Driver/Inc/stm32g0xx_ll_adc.h ****   * @retval Pointer to register address
 273:Drivers/STM32G0xx_HAL_Driver/Inc/stm32g0xx_ll_adc.h ****   */
 274:Drivers/STM32G0xx_HAL_Driver/Inc/stm32g0xx_ll_adc.h **** #define __ADC_PTR_REG_OFFSET(__REG__, __REG_OFFFSET__)                         \
 275:Drivers/STM32G0xx_HAL_Driver/Inc/stm32g0xx_ll_adc.h ****   ((__IO uint32_t *)((uint32_t) ((uint32_t)(&(__REG__)) + ((__REG_OFFFSET__) << 2UL))))
 276:Drivers/STM32G0xx_HAL_Driver/Inc/stm32g0xx_ll_adc.h **** 
 277:Drivers/STM32G0xx_HAL_Driver/Inc/stm32g0xx_ll_adc.h **** /**
 278:Drivers/STM32G0xx_HAL_Driver/Inc/stm32g0xx_ll_adc.h ****   * @}
 279:Drivers/STM32G0xx_HAL_Driver/Inc/stm32g0xx_ll_adc.h ****   */
 280:Drivers/STM32G0xx_HAL_Driver/Inc/stm32g0xx_ll_adc.h **** 
 281:Drivers/STM32G0xx_HAL_Driver/Inc/stm32g0xx_ll_adc.h **** 
 282:Drivers/STM32G0xx_HAL_Driver/Inc/stm32g0xx_ll_adc.h **** /* Exported types ------------------------------------------------------------*/
 283:Drivers/STM32G0xx_HAL_Driver/Inc/stm32g0xx_ll_adc.h **** #if defined(USE_FULL_LL_DRIVER)
 284:Drivers/STM32G0xx_HAL_Driver/Inc/stm32g0xx_ll_adc.h **** /** @defgroup ADC_LL_ES_INIT ADC Exported Init structure
 285:Drivers/STM32G0xx_HAL_Driver/Inc/stm32g0xx_ll_adc.h ****   * @{
 286:Drivers/STM32G0xx_HAL_Driver/Inc/stm32g0xx_ll_adc.h ****   */
 287:Drivers/STM32G0xx_HAL_Driver/Inc/stm32g0xx_ll_adc.h **** 
 288:Drivers/STM32G0xx_HAL_Driver/Inc/stm32g0xx_ll_adc.h **** /**
 289:Drivers/STM32G0xx_HAL_Driver/Inc/stm32g0xx_ll_adc.h ****   * @brief  Structure definition of some features of ADC common parameters
 290:Drivers/STM32G0xx_HAL_Driver/Inc/stm32g0xx_ll_adc.h ****   *         and multimode
 291:Drivers/STM32G0xx_HAL_Driver/Inc/stm32g0xx_ll_adc.h ****   *         (all ADC instances belonging to the same ADC common instance).
 292:Drivers/STM32G0xx_HAL_Driver/Inc/stm32g0xx_ll_adc.h ****   * @note   The setting of these parameters by function @ref LL_ADC_CommonInit()
 293:Drivers/STM32G0xx_HAL_Driver/Inc/stm32g0xx_ll_adc.h ****   *         is conditioned to ADC instances state (all ADC instances
 294:Drivers/STM32G0xx_HAL_Driver/Inc/stm32g0xx_ll_adc.h ****   *         sharing the same ADC common instance):
 295:Drivers/STM32G0xx_HAL_Driver/Inc/stm32g0xx_ll_adc.h ****   *         All ADC instances sharing the same ADC common instance must be
 296:Drivers/STM32G0xx_HAL_Driver/Inc/stm32g0xx_ll_adc.h ****   *         disabled.
 297:Drivers/STM32G0xx_HAL_Driver/Inc/stm32g0xx_ll_adc.h ****   */
 298:Drivers/STM32G0xx_HAL_Driver/Inc/stm32g0xx_ll_adc.h **** typedef struct
 299:Drivers/STM32G0xx_HAL_Driver/Inc/stm32g0xx_ll_adc.h **** {
 300:Drivers/STM32G0xx_HAL_Driver/Inc/stm32g0xx_ll_adc.h ****   uint32_t CommonClock;                 /*!< Set parameter common to several ADC: Clock source and 
 301:Drivers/STM32G0xx_HAL_Driver/Inc/stm32g0xx_ll_adc.h ****                                              This parameter can be a value of @ref ADC_LL_EC_COMMON
 302:Drivers/STM32G0xx_HAL_Driver/Inc/stm32g0xx_ll_adc.h **** 
 303:Drivers/STM32G0xx_HAL_Driver/Inc/stm32g0xx_ll_adc.h ****                                              This feature can be modified afterwards using unitary 
 304:Drivers/STM32G0xx_HAL_Driver/Inc/stm32g0xx_ll_adc.h **** 
 305:Drivers/STM32G0xx_HAL_Driver/Inc/stm32g0xx_ll_adc.h **** } LL_ADC_CommonInitTypeDef;
 306:Drivers/STM32G0xx_HAL_Driver/Inc/stm32g0xx_ll_adc.h **** 
 307:Drivers/STM32G0xx_HAL_Driver/Inc/stm32g0xx_ll_adc.h **** /**
 308:Drivers/STM32G0xx_HAL_Driver/Inc/stm32g0xx_ll_adc.h ****   * @brief  Structure definition of some features of ADC instance.
 309:Drivers/STM32G0xx_HAL_Driver/Inc/stm32g0xx_ll_adc.h ****   * @note   These parameters have an impact on ADC scope: ADC instance.
 310:Drivers/STM32G0xx_HAL_Driver/Inc/stm32g0xx_ll_adc.h ****   *         Refer to corresponding unitary functions into
 311:Drivers/STM32G0xx_HAL_Driver/Inc/stm32g0xx_ll_adc.h ****   *         @ref ADC_LL_EF_Configuration_ADC_Instance .
 312:Drivers/STM32G0xx_HAL_Driver/Inc/stm32g0xx_ll_adc.h ****   * @note   The setting of these parameters by function @ref LL_ADC_Init()
 313:Drivers/STM32G0xx_HAL_Driver/Inc/stm32g0xx_ll_adc.h ****   *         is conditioned to ADC state:
 314:Drivers/STM32G0xx_HAL_Driver/Inc/stm32g0xx_ll_adc.h ****   *         ADC instance must be disabled.
 315:Drivers/STM32G0xx_HAL_Driver/Inc/stm32g0xx_ll_adc.h ****   *         This condition is applied to all ADC features, for efficiency
 316:Drivers/STM32G0xx_HAL_Driver/Inc/stm32g0xx_ll_adc.h ****   *         and compatibility over all STM32 families. However, the different
 317:Drivers/STM32G0xx_HAL_Driver/Inc/stm32g0xx_ll_adc.h ****   *         features can be set under different ADC state conditions
 318:Drivers/STM32G0xx_HAL_Driver/Inc/stm32g0xx_ll_adc.h ****   *         (setting possible with ADC enabled without conversion on going,
 319:Drivers/STM32G0xx_HAL_Driver/Inc/stm32g0xx_ll_adc.h ****   *         ADC enabled with conversion on going, ...)
 320:Drivers/STM32G0xx_HAL_Driver/Inc/stm32g0xx_ll_adc.h ****   *         Each feature can be updated afterwards with a unitary function
 321:Drivers/STM32G0xx_HAL_Driver/Inc/stm32g0xx_ll_adc.h ****   *         and potentially with ADC in a different state than disabled,
 322:Drivers/STM32G0xx_HAL_Driver/Inc/stm32g0xx_ll_adc.h ****   *         refer to description of each function for setting
 323:Drivers/STM32G0xx_HAL_Driver/Inc/stm32g0xx_ll_adc.h ****   *         conditioned to ADC state.
ARM GAS  /tmp/ccAd34n9.s 			page 10


 324:Drivers/STM32G0xx_HAL_Driver/Inc/stm32g0xx_ll_adc.h ****   */
 325:Drivers/STM32G0xx_HAL_Driver/Inc/stm32g0xx_ll_adc.h **** typedef struct
 326:Drivers/STM32G0xx_HAL_Driver/Inc/stm32g0xx_ll_adc.h **** {
 327:Drivers/STM32G0xx_HAL_Driver/Inc/stm32g0xx_ll_adc.h ****   uint32_t Clock;                       /*!< Set ADC instance clock source and prescaler.
 328:Drivers/STM32G0xx_HAL_Driver/Inc/stm32g0xx_ll_adc.h ****                                              This parameter can be a value of @ref ADC_LL_EC_CLOCK_
 329:Drivers/STM32G0xx_HAL_Driver/Inc/stm32g0xx_ll_adc.h ****                                              @note On this STM32 series, this parameter has some cl
 330:Drivers/STM32G0xx_HAL_Driver/Inc/stm32g0xx_ll_adc.h ****                                                    ADC clock synchronous (from PCLK) with prescaler
 331:Drivers/STM32G0xx_HAL_Driver/Inc/stm32g0xx_ll_adc.h ****                                                    (APB prescaler configured inside the RCC must be
 332:Drivers/STM32G0xx_HAL_Driver/Inc/stm32g0xx_ll_adc.h **** 
 333:Drivers/STM32G0xx_HAL_Driver/Inc/stm32g0xx_ll_adc.h ****                                              This feature can be modified afterwards using unitary 
 334:Drivers/STM32G0xx_HAL_Driver/Inc/stm32g0xx_ll_adc.h ****                                              For more details, refer to description of this functio
 335:Drivers/STM32G0xx_HAL_Driver/Inc/stm32g0xx_ll_adc.h **** 
 336:Drivers/STM32G0xx_HAL_Driver/Inc/stm32g0xx_ll_adc.h ****   uint32_t Resolution;                  /*!< Set ADC resolution.
 337:Drivers/STM32G0xx_HAL_Driver/Inc/stm32g0xx_ll_adc.h ****                                              This parameter can be a value of @ref ADC_LL_EC_RESOLU
 338:Drivers/STM32G0xx_HAL_Driver/Inc/stm32g0xx_ll_adc.h **** 
 339:Drivers/STM32G0xx_HAL_Driver/Inc/stm32g0xx_ll_adc.h ****                                              This feature can be modified afterwards using unitary 
 340:Drivers/STM32G0xx_HAL_Driver/Inc/stm32g0xx_ll_adc.h **** 
 341:Drivers/STM32G0xx_HAL_Driver/Inc/stm32g0xx_ll_adc.h ****   uint32_t DataAlignment;               /*!< Set ADC conversion data alignment.
 342:Drivers/STM32G0xx_HAL_Driver/Inc/stm32g0xx_ll_adc.h ****                                              This parameter can be a value of @ref ADC_LL_EC_DATA_A
 343:Drivers/STM32G0xx_HAL_Driver/Inc/stm32g0xx_ll_adc.h **** 
 344:Drivers/STM32G0xx_HAL_Driver/Inc/stm32g0xx_ll_adc.h ****                                              This feature can be modified afterwards using unitary 
 345:Drivers/STM32G0xx_HAL_Driver/Inc/stm32g0xx_ll_adc.h **** 
 346:Drivers/STM32G0xx_HAL_Driver/Inc/stm32g0xx_ll_adc.h ****   uint32_t LowPowerMode;                /*!< Set ADC low power mode.
 347:Drivers/STM32G0xx_HAL_Driver/Inc/stm32g0xx_ll_adc.h ****                                              This parameter can be a value of @ref ADC_LL_EC_LP_MOD
 348:Drivers/STM32G0xx_HAL_Driver/Inc/stm32g0xx_ll_adc.h **** 
 349:Drivers/STM32G0xx_HAL_Driver/Inc/stm32g0xx_ll_adc.h ****                                              This feature can be modified afterwards using unitary 
 350:Drivers/STM32G0xx_HAL_Driver/Inc/stm32g0xx_ll_adc.h **** 
 351:Drivers/STM32G0xx_HAL_Driver/Inc/stm32g0xx_ll_adc.h **** } LL_ADC_InitTypeDef;
 352:Drivers/STM32G0xx_HAL_Driver/Inc/stm32g0xx_ll_adc.h **** 
 353:Drivers/STM32G0xx_HAL_Driver/Inc/stm32g0xx_ll_adc.h **** /**
 354:Drivers/STM32G0xx_HAL_Driver/Inc/stm32g0xx_ll_adc.h ****   * @brief  Structure definition of some features of ADC group regular.
 355:Drivers/STM32G0xx_HAL_Driver/Inc/stm32g0xx_ll_adc.h ****   * @note   These parameters have an impact on ADC scope: ADC group regular.
 356:Drivers/STM32G0xx_HAL_Driver/Inc/stm32g0xx_ll_adc.h ****   *         Refer to corresponding unitary functions into
 357:Drivers/STM32G0xx_HAL_Driver/Inc/stm32g0xx_ll_adc.h ****   *         @ref ADC_LL_EF_Configuration_ADC_Group_Regular
 358:Drivers/STM32G0xx_HAL_Driver/Inc/stm32g0xx_ll_adc.h ****   *         (functions with prefix "REG").
 359:Drivers/STM32G0xx_HAL_Driver/Inc/stm32g0xx_ll_adc.h ****   * @note   The setting of these parameters by function @ref LL_ADC_REG_Init()
 360:Drivers/STM32G0xx_HAL_Driver/Inc/stm32g0xx_ll_adc.h ****   *         is conditioned to ADC state:
 361:Drivers/STM32G0xx_HAL_Driver/Inc/stm32g0xx_ll_adc.h ****   *         ADC instance must be disabled.
 362:Drivers/STM32G0xx_HAL_Driver/Inc/stm32g0xx_ll_adc.h ****   *         This condition is applied to all ADC features, for efficiency
 363:Drivers/STM32G0xx_HAL_Driver/Inc/stm32g0xx_ll_adc.h ****   *         and compatibility over all STM32 families. However, the different
 364:Drivers/STM32G0xx_HAL_Driver/Inc/stm32g0xx_ll_adc.h ****   *         features can be set under different ADC state conditions
 365:Drivers/STM32G0xx_HAL_Driver/Inc/stm32g0xx_ll_adc.h ****   *         (setting possible with ADC enabled without conversion on going,
 366:Drivers/STM32G0xx_HAL_Driver/Inc/stm32g0xx_ll_adc.h ****   *         ADC enabled with conversion on going, ...)
 367:Drivers/STM32G0xx_HAL_Driver/Inc/stm32g0xx_ll_adc.h ****   *         Each feature can be updated afterwards with a unitary function
 368:Drivers/STM32G0xx_HAL_Driver/Inc/stm32g0xx_ll_adc.h ****   *         and potentially with ADC in a different state than disabled,
 369:Drivers/STM32G0xx_HAL_Driver/Inc/stm32g0xx_ll_adc.h ****   *         refer to description of each function for setting
 370:Drivers/STM32G0xx_HAL_Driver/Inc/stm32g0xx_ll_adc.h ****   *         conditioned to ADC state.
 371:Drivers/STM32G0xx_HAL_Driver/Inc/stm32g0xx_ll_adc.h ****   */
 372:Drivers/STM32G0xx_HAL_Driver/Inc/stm32g0xx_ll_adc.h **** typedef struct
 373:Drivers/STM32G0xx_HAL_Driver/Inc/stm32g0xx_ll_adc.h **** {
 374:Drivers/STM32G0xx_HAL_Driver/Inc/stm32g0xx_ll_adc.h ****   uint32_t TriggerSource;               /*!< Set ADC group regular conversion trigger source: inter
 375:Drivers/STM32G0xx_HAL_Driver/Inc/stm32g0xx_ll_adc.h ****                                              This parameter can be a value of @ref ADC_LL_EC_REG_TR
 376:Drivers/STM32G0xx_HAL_Driver/Inc/stm32g0xx_ll_adc.h ****                                              @note On this STM32 series, setting trigger source to 
 377:Drivers/STM32G0xx_HAL_Driver/Inc/stm32g0xx_ll_adc.h ****                                                    (default setting for compatibility with some ADC
 378:Drivers/STM32G0xx_HAL_Driver/Inc/stm32g0xx_ll_adc.h ****                                                    In case of need to modify trigger edge, use func
 379:Drivers/STM32G0xx_HAL_Driver/Inc/stm32g0xx_ll_adc.h **** 
 380:Drivers/STM32G0xx_HAL_Driver/Inc/stm32g0xx_ll_adc.h ****                                              This feature can be modified afterwards using unitary 
ARM GAS  /tmp/ccAd34n9.s 			page 11


 381:Drivers/STM32G0xx_HAL_Driver/Inc/stm32g0xx_ll_adc.h **** 
 382:Drivers/STM32G0xx_HAL_Driver/Inc/stm32g0xx_ll_adc.h ****   uint32_t SequencerLength;             /*!< Set ADC group regular sequencer length.
 383:Drivers/STM32G0xx_HAL_Driver/Inc/stm32g0xx_ll_adc.h ****                                              @note This parameter has an effect only if group regul
 384:Drivers/STM32G0xx_HAL_Driver/Inc/stm32g0xx_ll_adc.h ****                                              This parameter can be a value of @ref ADC_LL_EC_REG_SE
 385:Drivers/STM32G0xx_HAL_Driver/Inc/stm32g0xx_ll_adc.h **** 
 386:Drivers/STM32G0xx_HAL_Driver/Inc/stm32g0xx_ll_adc.h ****                                              This feature can be modified afterwards using unitary 
 387:Drivers/STM32G0xx_HAL_Driver/Inc/stm32g0xx_ll_adc.h **** 
 388:Drivers/STM32G0xx_HAL_Driver/Inc/stm32g0xx_ll_adc.h ****   uint32_t SequencerDiscont;            /*!< Set ADC group regular sequencer discontinuous mode: se
 389:Drivers/STM32G0xx_HAL_Driver/Inc/stm32g0xx_ll_adc.h ****                                              This parameter can be a value of @ref ADC_LL_EC_REG_SE
 390:Drivers/STM32G0xx_HAL_Driver/Inc/stm32g0xx_ll_adc.h ****                                              @note This parameter has an effect only if group regul
 391:Drivers/STM32G0xx_HAL_Driver/Inc/stm32g0xx_ll_adc.h ****                                                    (depending on the sequencer mode: scan length of
 392:Drivers/STM32G0xx_HAL_Driver/Inc/stm32g0xx_ll_adc.h **** 
 393:Drivers/STM32G0xx_HAL_Driver/Inc/stm32g0xx_ll_adc.h ****                                              This feature can be modified afterwards using unitary 
 394:Drivers/STM32G0xx_HAL_Driver/Inc/stm32g0xx_ll_adc.h **** 
 395:Drivers/STM32G0xx_HAL_Driver/Inc/stm32g0xx_ll_adc.h ****   uint32_t ContinuousMode;              /*!< Set ADC continuous conversion mode on ADC group regula
 396:Drivers/STM32G0xx_HAL_Driver/Inc/stm32g0xx_ll_adc.h ****                                              This parameter can be a value of @ref ADC_LL_EC_REG_CO
 397:Drivers/STM32G0xx_HAL_Driver/Inc/stm32g0xx_ll_adc.h ****                                              Note: It is not possible to enable both ADC group regu
 398:Drivers/STM32G0xx_HAL_Driver/Inc/stm32g0xx_ll_adc.h **** 
 399:Drivers/STM32G0xx_HAL_Driver/Inc/stm32g0xx_ll_adc.h ****                                              This feature can be modified afterwards using unitary 
 400:Drivers/STM32G0xx_HAL_Driver/Inc/stm32g0xx_ll_adc.h **** 
 401:Drivers/STM32G0xx_HAL_Driver/Inc/stm32g0xx_ll_adc.h ****   uint32_t DMATransfer;                 /*!< Set ADC group regular conversion data transfer: no tra
 402:Drivers/STM32G0xx_HAL_Driver/Inc/stm32g0xx_ll_adc.h ****                                              This parameter can be a value of @ref ADC_LL_EC_REG_DM
 403:Drivers/STM32G0xx_HAL_Driver/Inc/stm32g0xx_ll_adc.h **** 
 404:Drivers/STM32G0xx_HAL_Driver/Inc/stm32g0xx_ll_adc.h ****                                              This feature can be modified afterwards using unitary 
 405:Drivers/STM32G0xx_HAL_Driver/Inc/stm32g0xx_ll_adc.h **** 
 406:Drivers/STM32G0xx_HAL_Driver/Inc/stm32g0xx_ll_adc.h ****   uint32_t Overrun;                     /*!< Set ADC group regular behavior in case of overrun:
 407:Drivers/STM32G0xx_HAL_Driver/Inc/stm32g0xx_ll_adc.h ****                                              data preserved or overwritten.
 408:Drivers/STM32G0xx_HAL_Driver/Inc/stm32g0xx_ll_adc.h ****                                              This parameter can be a value of @ref ADC_LL_EC_REG_OV
 409:Drivers/STM32G0xx_HAL_Driver/Inc/stm32g0xx_ll_adc.h **** 
 410:Drivers/STM32G0xx_HAL_Driver/Inc/stm32g0xx_ll_adc.h ****                                              This feature can be modified afterwards using unitary 
 411:Drivers/STM32G0xx_HAL_Driver/Inc/stm32g0xx_ll_adc.h **** 
 412:Drivers/STM32G0xx_HAL_Driver/Inc/stm32g0xx_ll_adc.h **** } LL_ADC_REG_InitTypeDef;
 413:Drivers/STM32G0xx_HAL_Driver/Inc/stm32g0xx_ll_adc.h **** 
 414:Drivers/STM32G0xx_HAL_Driver/Inc/stm32g0xx_ll_adc.h **** /**
 415:Drivers/STM32G0xx_HAL_Driver/Inc/stm32g0xx_ll_adc.h ****   * @}
 416:Drivers/STM32G0xx_HAL_Driver/Inc/stm32g0xx_ll_adc.h ****   */
 417:Drivers/STM32G0xx_HAL_Driver/Inc/stm32g0xx_ll_adc.h **** #endif /* USE_FULL_LL_DRIVER */
 418:Drivers/STM32G0xx_HAL_Driver/Inc/stm32g0xx_ll_adc.h **** 
 419:Drivers/STM32G0xx_HAL_Driver/Inc/stm32g0xx_ll_adc.h **** /* Exported constants --------------------------------------------------------*/
 420:Drivers/STM32G0xx_HAL_Driver/Inc/stm32g0xx_ll_adc.h **** /** @defgroup ADC_LL_Exported_Constants ADC Exported Constants
 421:Drivers/STM32G0xx_HAL_Driver/Inc/stm32g0xx_ll_adc.h ****   * @{
 422:Drivers/STM32G0xx_HAL_Driver/Inc/stm32g0xx_ll_adc.h ****   */
 423:Drivers/STM32G0xx_HAL_Driver/Inc/stm32g0xx_ll_adc.h **** 
 424:Drivers/STM32G0xx_HAL_Driver/Inc/stm32g0xx_ll_adc.h **** /** @defgroup ADC_LL_EC_FLAG ADC flags
 425:Drivers/STM32G0xx_HAL_Driver/Inc/stm32g0xx_ll_adc.h ****   * @brief    Flags defines which can be used with LL_ADC_ReadReg function
 426:Drivers/STM32G0xx_HAL_Driver/Inc/stm32g0xx_ll_adc.h ****   * @{
 427:Drivers/STM32G0xx_HAL_Driver/Inc/stm32g0xx_ll_adc.h ****   */
 428:Drivers/STM32G0xx_HAL_Driver/Inc/stm32g0xx_ll_adc.h **** #define LL_ADC_FLAG_ADRDY                  ADC_ISR_ADRDY      /*!< ADC flag ADC instance ready */
 429:Drivers/STM32G0xx_HAL_Driver/Inc/stm32g0xx_ll_adc.h **** #define LL_ADC_FLAG_CCRDY                  ADC_ISR_CCRDY      /*!< ADC flag ADC channel configurati
 430:Drivers/STM32G0xx_HAL_Driver/Inc/stm32g0xx_ll_adc.h **** #define LL_ADC_FLAG_EOC                    ADC_ISR_EOC        /*!< ADC flag ADC group regular end o
 431:Drivers/STM32G0xx_HAL_Driver/Inc/stm32g0xx_ll_adc.h **** #define LL_ADC_FLAG_EOS                    ADC_ISR_EOS        /*!< ADC flag ADC group regular end o
 432:Drivers/STM32G0xx_HAL_Driver/Inc/stm32g0xx_ll_adc.h **** #define LL_ADC_FLAG_OVR                    ADC_ISR_OVR        /*!< ADC flag ADC group regular overr
 433:Drivers/STM32G0xx_HAL_Driver/Inc/stm32g0xx_ll_adc.h **** #define LL_ADC_FLAG_EOSMP                  ADC_ISR_EOSMP      /*!< ADC flag ADC group regular end o
 434:Drivers/STM32G0xx_HAL_Driver/Inc/stm32g0xx_ll_adc.h **** #define LL_ADC_FLAG_AWD1                   ADC_ISR_AWD1       /*!< ADC flag ADC analog watchdog 1 *
 435:Drivers/STM32G0xx_HAL_Driver/Inc/stm32g0xx_ll_adc.h **** #define LL_ADC_FLAG_AWD2                   ADC_ISR_AWD2       /*!< ADC flag ADC analog watchdog 2 *
 436:Drivers/STM32G0xx_HAL_Driver/Inc/stm32g0xx_ll_adc.h **** #define LL_ADC_FLAG_AWD3                   ADC_ISR_AWD3       /*!< ADC flag ADC analog watchdog 3 *
 437:Drivers/STM32G0xx_HAL_Driver/Inc/stm32g0xx_ll_adc.h **** #define LL_ADC_FLAG_EOCAL                  ADC_ISR_EOCAL      /*!< ADC flag end of calibration */
ARM GAS  /tmp/ccAd34n9.s 			page 12


 438:Drivers/STM32G0xx_HAL_Driver/Inc/stm32g0xx_ll_adc.h **** /**
 439:Drivers/STM32G0xx_HAL_Driver/Inc/stm32g0xx_ll_adc.h ****   * @}
 440:Drivers/STM32G0xx_HAL_Driver/Inc/stm32g0xx_ll_adc.h ****   */
 441:Drivers/STM32G0xx_HAL_Driver/Inc/stm32g0xx_ll_adc.h **** 
 442:Drivers/STM32G0xx_HAL_Driver/Inc/stm32g0xx_ll_adc.h **** /** @defgroup ADC_LL_EC_IT ADC interruptions for configuration (interruption enable or disable)
 443:Drivers/STM32G0xx_HAL_Driver/Inc/stm32g0xx_ll_adc.h ****   * @brief    IT defines which can be used with LL_ADC_ReadReg and  LL_ADC_WriteReg functions
 444:Drivers/STM32G0xx_HAL_Driver/Inc/stm32g0xx_ll_adc.h ****   * @{
 445:Drivers/STM32G0xx_HAL_Driver/Inc/stm32g0xx_ll_adc.h ****   */
 446:Drivers/STM32G0xx_HAL_Driver/Inc/stm32g0xx_ll_adc.h **** #define LL_ADC_IT_ADRDY                    ADC_IER_ADRDYIE    /*!< ADC interruption ADC instance re
 447:Drivers/STM32G0xx_HAL_Driver/Inc/stm32g0xx_ll_adc.h **** #define LL_ADC_IT_CCRDY                    ADC_IER_CCRDYIE    /*!< ADC interruption channel configu
 448:Drivers/STM32G0xx_HAL_Driver/Inc/stm32g0xx_ll_adc.h **** #define LL_ADC_IT_EOC                      ADC_IER_EOCIE      /*!< ADC interruption ADC group regul
 449:Drivers/STM32G0xx_HAL_Driver/Inc/stm32g0xx_ll_adc.h **** #define LL_ADC_IT_EOS                      ADC_IER_EOSIE      /*!< ADC interruption ADC group regul
 450:Drivers/STM32G0xx_HAL_Driver/Inc/stm32g0xx_ll_adc.h **** #define LL_ADC_IT_OVR                      ADC_IER_OVRIE      /*!< ADC interruption ADC group regul
 451:Drivers/STM32G0xx_HAL_Driver/Inc/stm32g0xx_ll_adc.h **** #define LL_ADC_IT_EOSMP                    ADC_IER_EOSMPIE    /*!< ADC interruption ADC group regul
 452:Drivers/STM32G0xx_HAL_Driver/Inc/stm32g0xx_ll_adc.h **** #define LL_ADC_IT_AWD1                     ADC_IER_AWD1IE     /*!< ADC interruption ADC analog watc
 453:Drivers/STM32G0xx_HAL_Driver/Inc/stm32g0xx_ll_adc.h **** #define LL_ADC_IT_AWD2                     ADC_IER_AWD2IE     /*!< ADC interruption ADC analog watc
 454:Drivers/STM32G0xx_HAL_Driver/Inc/stm32g0xx_ll_adc.h **** #define LL_ADC_IT_AWD3                     ADC_IER_AWD3IE     /*!< ADC interruption ADC analog watc
 455:Drivers/STM32G0xx_HAL_Driver/Inc/stm32g0xx_ll_adc.h **** #define LL_ADC_IT_EOCAL                    ADC_IER_EOCALIE    /*!< ADC interruption ADC end of cali
 456:Drivers/STM32G0xx_HAL_Driver/Inc/stm32g0xx_ll_adc.h **** /**
 457:Drivers/STM32G0xx_HAL_Driver/Inc/stm32g0xx_ll_adc.h ****   * @}
 458:Drivers/STM32G0xx_HAL_Driver/Inc/stm32g0xx_ll_adc.h ****   */
 459:Drivers/STM32G0xx_HAL_Driver/Inc/stm32g0xx_ll_adc.h **** 
 460:Drivers/STM32G0xx_HAL_Driver/Inc/stm32g0xx_ll_adc.h **** /** @defgroup ADC_LL_EC_REGISTERS  ADC registers compliant with specific purpose
 461:Drivers/STM32G0xx_HAL_Driver/Inc/stm32g0xx_ll_adc.h ****   * @{
 462:Drivers/STM32G0xx_HAL_Driver/Inc/stm32g0xx_ll_adc.h ****   */
 463:Drivers/STM32G0xx_HAL_Driver/Inc/stm32g0xx_ll_adc.h **** /* List of ADC registers intended to be used (most commonly) with             */
 464:Drivers/STM32G0xx_HAL_Driver/Inc/stm32g0xx_ll_adc.h **** /* DMA transfer.                                                              */
 465:Drivers/STM32G0xx_HAL_Driver/Inc/stm32g0xx_ll_adc.h **** /* Refer to function @ref LL_ADC_DMA_GetRegAddr().                            */
 466:Drivers/STM32G0xx_HAL_Driver/Inc/stm32g0xx_ll_adc.h **** #define LL_ADC_DMA_REG_REGULAR_DATA          (0x00000000UL) /* ADC group regular conversion data re
 467:Drivers/STM32G0xx_HAL_Driver/Inc/stm32g0xx_ll_adc.h **** /**
 468:Drivers/STM32G0xx_HAL_Driver/Inc/stm32g0xx_ll_adc.h ****   * @}
 469:Drivers/STM32G0xx_HAL_Driver/Inc/stm32g0xx_ll_adc.h ****   */
 470:Drivers/STM32G0xx_HAL_Driver/Inc/stm32g0xx_ll_adc.h **** 
 471:Drivers/STM32G0xx_HAL_Driver/Inc/stm32g0xx_ll_adc.h **** /** @defgroup ADC_LL_EC_COMMON_CLOCK_SOURCE  ADC common - Clock source
 472:Drivers/STM32G0xx_HAL_Driver/Inc/stm32g0xx_ll_adc.h ****   * @{
 473:Drivers/STM32G0xx_HAL_Driver/Inc/stm32g0xx_ll_adc.h ****   */
 474:Drivers/STM32G0xx_HAL_Driver/Inc/stm32g0xx_ll_adc.h **** #define LL_ADC_CLOCK_ASYNC_DIV1            (0x00000000UL)                                        /*
 475:Drivers/STM32G0xx_HAL_Driver/Inc/stm32g0xx_ll_adc.h **** #define LL_ADC_CLOCK_ASYNC_DIV2            (ADC_CCR_PRESC_0)                                     /*
 476:Drivers/STM32G0xx_HAL_Driver/Inc/stm32g0xx_ll_adc.h **** #define LL_ADC_CLOCK_ASYNC_DIV4            (ADC_CCR_PRESC_1                  )                   /*
 477:Drivers/STM32G0xx_HAL_Driver/Inc/stm32g0xx_ll_adc.h **** #define LL_ADC_CLOCK_ASYNC_DIV6            (ADC_CCR_PRESC_1 | ADC_CCR_PRESC_0)                   /*
 478:Drivers/STM32G0xx_HAL_Driver/Inc/stm32g0xx_ll_adc.h **** #define LL_ADC_CLOCK_ASYNC_DIV8            (ADC_CCR_PRESC_2                                    ) /*
 479:Drivers/STM32G0xx_HAL_Driver/Inc/stm32g0xx_ll_adc.h **** #define LL_ADC_CLOCK_ASYNC_DIV10           (ADC_CCR_PRESC_2                   | ADC_CCR_PRESC_0) /*
 480:Drivers/STM32G0xx_HAL_Driver/Inc/stm32g0xx_ll_adc.h **** #define LL_ADC_CLOCK_ASYNC_DIV12           (ADC_CCR_PRESC_2 | ADC_CCR_PRESC_1                  ) /*
 481:Drivers/STM32G0xx_HAL_Driver/Inc/stm32g0xx_ll_adc.h **** #define LL_ADC_CLOCK_ASYNC_DIV16           (ADC_CCR_PRESC_2 | ADC_CCR_PRESC_1 | ADC_CCR_PRESC_0) /*
 482:Drivers/STM32G0xx_HAL_Driver/Inc/stm32g0xx_ll_adc.h **** #define LL_ADC_CLOCK_ASYNC_DIV32           (ADC_CCR_PRESC_3)                                     /*
 483:Drivers/STM32G0xx_HAL_Driver/Inc/stm32g0xx_ll_adc.h **** #define LL_ADC_CLOCK_ASYNC_DIV64           (ADC_CCR_PRESC_3 | ADC_CCR_PRESC_0)                   /*
 484:Drivers/STM32G0xx_HAL_Driver/Inc/stm32g0xx_ll_adc.h **** #define LL_ADC_CLOCK_ASYNC_DIV128          (ADC_CCR_PRESC_3 | ADC_CCR_PRESC_1)                   /*
 485:Drivers/STM32G0xx_HAL_Driver/Inc/stm32g0xx_ll_adc.h **** #define LL_ADC_CLOCK_ASYNC_DIV256          (ADC_CCR_PRESC_3 | ADC_CCR_PRESC_1 | ADC_CCR_PRESC_0) /*
 486:Drivers/STM32G0xx_HAL_Driver/Inc/stm32g0xx_ll_adc.h **** /**
 487:Drivers/STM32G0xx_HAL_Driver/Inc/stm32g0xx_ll_adc.h ****   * @}
 488:Drivers/STM32G0xx_HAL_Driver/Inc/stm32g0xx_ll_adc.h ****   */
 489:Drivers/STM32G0xx_HAL_Driver/Inc/stm32g0xx_ll_adc.h **** 
 490:Drivers/STM32G0xx_HAL_Driver/Inc/stm32g0xx_ll_adc.h **** /** @defgroup ADC_LL_EC_COMMON_CLOCK_FREQ_MODE  ADC common - Clock frequency mode
 491:Drivers/STM32G0xx_HAL_Driver/Inc/stm32g0xx_ll_adc.h ****   * @{
 492:Drivers/STM32G0xx_HAL_Driver/Inc/stm32g0xx_ll_adc.h ****   */
 493:Drivers/STM32G0xx_HAL_Driver/Inc/stm32g0xx_ll_adc.h **** #define LL_ADC_CLOCK_FREQ_MODE_HIGH        (0x00000000UL)         /*!< ADC clock mode to high frequ
 494:Drivers/STM32G0xx_HAL_Driver/Inc/stm32g0xx_ll_adc.h **** #define LL_ADC_CLOCK_FREQ_MODE_LOW         (ADC_CCR_LFMEN)        /*!< ADC clock mode to low freque
ARM GAS  /tmp/ccAd34n9.s 			page 13


 495:Drivers/STM32G0xx_HAL_Driver/Inc/stm32g0xx_ll_adc.h **** /**
 496:Drivers/STM32G0xx_HAL_Driver/Inc/stm32g0xx_ll_adc.h ****   * @}
 497:Drivers/STM32G0xx_HAL_Driver/Inc/stm32g0xx_ll_adc.h ****   */
 498:Drivers/STM32G0xx_HAL_Driver/Inc/stm32g0xx_ll_adc.h **** 
 499:Drivers/STM32G0xx_HAL_Driver/Inc/stm32g0xx_ll_adc.h **** /** @defgroup ADC_LL_EC_COMMON_PATH_INTERNAL  ADC common - Measurement path to internal channels
 500:Drivers/STM32G0xx_HAL_Driver/Inc/stm32g0xx_ll_adc.h ****   * @{
 501:Drivers/STM32G0xx_HAL_Driver/Inc/stm32g0xx_ll_adc.h ****   */
 502:Drivers/STM32G0xx_HAL_Driver/Inc/stm32g0xx_ll_adc.h **** /* Note: Other measurement paths to internal channels may be available        */
 503:Drivers/STM32G0xx_HAL_Driver/Inc/stm32g0xx_ll_adc.h **** /*       (connections to other peripherals).                                  */
 504:Drivers/STM32G0xx_HAL_Driver/Inc/stm32g0xx_ll_adc.h **** /*       If they are not listed below, they do not require any specific       */
 505:Drivers/STM32G0xx_HAL_Driver/Inc/stm32g0xx_ll_adc.h **** /*       path enable. In this case, Access to measurement path is done        */
 506:Drivers/STM32G0xx_HAL_Driver/Inc/stm32g0xx_ll_adc.h **** /*       only by selecting the corresponding ADC internal channel.            */
 507:Drivers/STM32G0xx_HAL_Driver/Inc/stm32g0xx_ll_adc.h **** #define LL_ADC_PATH_INTERNAL_NONE          (0x00000000UL)         /*!< ADC measurement paths all di
 508:Drivers/STM32G0xx_HAL_Driver/Inc/stm32g0xx_ll_adc.h **** #define LL_ADC_PATH_INTERNAL_VREFINT       (ADC_CCR_VREFEN)       /*!< ADC measurement path to inte
 509:Drivers/STM32G0xx_HAL_Driver/Inc/stm32g0xx_ll_adc.h **** #define LL_ADC_PATH_INTERNAL_TEMPSENSOR    (ADC_CCR_TSEN)         /*!< ADC measurement path to inte
 510:Drivers/STM32G0xx_HAL_Driver/Inc/stm32g0xx_ll_adc.h **** #define LL_ADC_PATH_INTERNAL_VBAT          (ADC_CCR_VBATEN)       /*!< ADC measurement path to inte
 511:Drivers/STM32G0xx_HAL_Driver/Inc/stm32g0xx_ll_adc.h **** /**
 512:Drivers/STM32G0xx_HAL_Driver/Inc/stm32g0xx_ll_adc.h ****   * @}
 513:Drivers/STM32G0xx_HAL_Driver/Inc/stm32g0xx_ll_adc.h ****   */
 514:Drivers/STM32G0xx_HAL_Driver/Inc/stm32g0xx_ll_adc.h **** 
 515:Drivers/STM32G0xx_HAL_Driver/Inc/stm32g0xx_ll_adc.h **** /** @defgroup ADC_LL_EC_CLOCK_SOURCE  ADC instance - Clock source
 516:Drivers/STM32G0xx_HAL_Driver/Inc/stm32g0xx_ll_adc.h ****   * @{
 517:Drivers/STM32G0xx_HAL_Driver/Inc/stm32g0xx_ll_adc.h ****   */
 518:Drivers/STM32G0xx_HAL_Driver/Inc/stm32g0xx_ll_adc.h **** #define LL_ADC_CLOCK_SYNC_PCLK_DIV4        (ADC_CFGR2_CKMODE_1)                                  /*
 519:Drivers/STM32G0xx_HAL_Driver/Inc/stm32g0xx_ll_adc.h **** #define LL_ADC_CLOCK_SYNC_PCLK_DIV2        (ADC_CFGR2_CKMODE_0)                                  /*
 520:Drivers/STM32G0xx_HAL_Driver/Inc/stm32g0xx_ll_adc.h **** #define LL_ADC_CLOCK_SYNC_PCLK_DIV1        (ADC_CFGR2_CKMODE_1 | ADC_CFGR2_CKMODE_0)             /*
 521:Drivers/STM32G0xx_HAL_Driver/Inc/stm32g0xx_ll_adc.h **** #define LL_ADC_CLOCK_ASYNC                 (0x00000000UL)                                        /*
 522:Drivers/STM32G0xx_HAL_Driver/Inc/stm32g0xx_ll_adc.h **** /**
 523:Drivers/STM32G0xx_HAL_Driver/Inc/stm32g0xx_ll_adc.h ****   * @}
 524:Drivers/STM32G0xx_HAL_Driver/Inc/stm32g0xx_ll_adc.h ****   */
 525:Drivers/STM32G0xx_HAL_Driver/Inc/stm32g0xx_ll_adc.h **** 
 526:Drivers/STM32G0xx_HAL_Driver/Inc/stm32g0xx_ll_adc.h **** /** @defgroup ADC_LL_EC_RESOLUTION  ADC instance - Resolution
 527:Drivers/STM32G0xx_HAL_Driver/Inc/stm32g0xx_ll_adc.h ****   * @{
 528:Drivers/STM32G0xx_HAL_Driver/Inc/stm32g0xx_ll_adc.h ****   */
 529:Drivers/STM32G0xx_HAL_Driver/Inc/stm32g0xx_ll_adc.h **** #define LL_ADC_RESOLUTION_12B              (0x00000000UL)                      /*!< ADC resolution 
 530:Drivers/STM32G0xx_HAL_Driver/Inc/stm32g0xx_ll_adc.h **** #define LL_ADC_RESOLUTION_10B              (                  ADC_CFGR1_RES_0) /*!< ADC resolution 
 531:Drivers/STM32G0xx_HAL_Driver/Inc/stm32g0xx_ll_adc.h **** #define LL_ADC_RESOLUTION_8B               (ADC_CFGR1_RES_1                  ) /*!< ADC resolution 
 532:Drivers/STM32G0xx_HAL_Driver/Inc/stm32g0xx_ll_adc.h **** #define LL_ADC_RESOLUTION_6B               (ADC_CFGR1_RES_1 | ADC_CFGR1_RES_0) /*!< ADC resolution 
 533:Drivers/STM32G0xx_HAL_Driver/Inc/stm32g0xx_ll_adc.h **** /**
 534:Drivers/STM32G0xx_HAL_Driver/Inc/stm32g0xx_ll_adc.h ****   * @}
 535:Drivers/STM32G0xx_HAL_Driver/Inc/stm32g0xx_ll_adc.h ****   */
 536:Drivers/STM32G0xx_HAL_Driver/Inc/stm32g0xx_ll_adc.h **** 
 537:Drivers/STM32G0xx_HAL_Driver/Inc/stm32g0xx_ll_adc.h **** /** @defgroup ADC_LL_EC_DATA_ALIGN  ADC instance - Data alignment
 538:Drivers/STM32G0xx_HAL_Driver/Inc/stm32g0xx_ll_adc.h ****   * @{
 539:Drivers/STM32G0xx_HAL_Driver/Inc/stm32g0xx_ll_adc.h ****   */
 540:Drivers/STM32G0xx_HAL_Driver/Inc/stm32g0xx_ll_adc.h **** #define LL_ADC_DATA_ALIGN_RIGHT            (0x00000000UL)         /*!< ADC conversion data alignmen
 541:Drivers/STM32G0xx_HAL_Driver/Inc/stm32g0xx_ll_adc.h **** #define LL_ADC_DATA_ALIGN_LEFT             (ADC_CFGR1_ALIGN)      /*!< ADC conversion data alignmen
 542:Drivers/STM32G0xx_HAL_Driver/Inc/stm32g0xx_ll_adc.h **** /**
 543:Drivers/STM32G0xx_HAL_Driver/Inc/stm32g0xx_ll_adc.h ****   * @}
 544:Drivers/STM32G0xx_HAL_Driver/Inc/stm32g0xx_ll_adc.h ****   */
 545:Drivers/STM32G0xx_HAL_Driver/Inc/stm32g0xx_ll_adc.h **** 
 546:Drivers/STM32G0xx_HAL_Driver/Inc/stm32g0xx_ll_adc.h **** /** @defgroup ADC_LL_EC_LP_MODE  ADC instance - Low power mode
 547:Drivers/STM32G0xx_HAL_Driver/Inc/stm32g0xx_ll_adc.h ****   * @{
 548:Drivers/STM32G0xx_HAL_Driver/Inc/stm32g0xx_ll_adc.h ****   */
 549:Drivers/STM32G0xx_HAL_Driver/Inc/stm32g0xx_ll_adc.h **** #define LL_ADC_LP_MODE_NONE                (0x00000000UL)                      /*!< No ADC low powe
 550:Drivers/STM32G0xx_HAL_Driver/Inc/stm32g0xx_ll_adc.h **** #define LL_ADC_LP_AUTOWAIT                 (ADC_CFGR1_WAIT)                    /*!< ADC low power m
 551:Drivers/STM32G0xx_HAL_Driver/Inc/stm32g0xx_ll_adc.h **** #define LL_ADC_LP_AUTOPOWEROFF             (ADC_CFGR1_AUTOFF)                  /*!< ADC low power m
ARM GAS  /tmp/ccAd34n9.s 			page 14


 552:Drivers/STM32G0xx_HAL_Driver/Inc/stm32g0xx_ll_adc.h **** #define LL_ADC_LP_AUTOWAIT_AUTOPOWEROFF    (ADC_CFGR1_WAIT | ADC_CFGR1_AUTOFF) /*!< ADC low power m
 553:Drivers/STM32G0xx_HAL_Driver/Inc/stm32g0xx_ll_adc.h **** /**
 554:Drivers/STM32G0xx_HAL_Driver/Inc/stm32g0xx_ll_adc.h ****   * @}
 555:Drivers/STM32G0xx_HAL_Driver/Inc/stm32g0xx_ll_adc.h ****   */
 556:Drivers/STM32G0xx_HAL_Driver/Inc/stm32g0xx_ll_adc.h **** 
 557:Drivers/STM32G0xx_HAL_Driver/Inc/stm32g0xx_ll_adc.h **** /** @defgroup ADC_LL_EC_REG_TRIGGER_FREQ  ADC group regular - Trigger frequency mode
 558:Drivers/STM32G0xx_HAL_Driver/Inc/stm32g0xx_ll_adc.h ****   * @{
 559:Drivers/STM32G0xx_HAL_Driver/Inc/stm32g0xx_ll_adc.h ****   */
 560:Drivers/STM32G0xx_HAL_Driver/Inc/stm32g0xx_ll_adc.h **** #define LL_ADC_TRIGGER_FREQ_HIGH           (0x00000000UL)            /*!< ADC trigger frequency mod
 561:Drivers/STM32G0xx_HAL_Driver/Inc/stm32g0xx_ll_adc.h **** #define LL_ADC_TRIGGER_FREQ_LOW            (ADC_CFGR2_LFTRIG)        /*!< ADC trigger frequency mod
 562:Drivers/STM32G0xx_HAL_Driver/Inc/stm32g0xx_ll_adc.h **** /**
 563:Drivers/STM32G0xx_HAL_Driver/Inc/stm32g0xx_ll_adc.h ****   * @}
 564:Drivers/STM32G0xx_HAL_Driver/Inc/stm32g0xx_ll_adc.h ****   */
 565:Drivers/STM32G0xx_HAL_Driver/Inc/stm32g0xx_ll_adc.h **** 
 566:Drivers/STM32G0xx_HAL_Driver/Inc/stm32g0xx_ll_adc.h **** /** @defgroup ADC_LL_EC_SAMPLINGTIME_COMMON  ADC instance - Sampling time common to a group of chan
 567:Drivers/STM32G0xx_HAL_Driver/Inc/stm32g0xx_ll_adc.h ****   * @{
 568:Drivers/STM32G0xx_HAL_Driver/Inc/stm32g0xx_ll_adc.h ****   */
 569:Drivers/STM32G0xx_HAL_Driver/Inc/stm32g0xx_ll_adc.h **** #define LL_ADC_SAMPLINGTIME_COMMON_1       (ADC_SMPR_SMP1_BITOFFSET_POS)                           
 570:Drivers/STM32G0xx_HAL_Driver/Inc/stm32g0xx_ll_adc.h **** #define LL_ADC_SAMPLINGTIME_COMMON_2       (ADC_SMPR_SMP2_BITOFFSET_POS | ADC_SAMPLING_TIME_CH_MASK
 571:Drivers/STM32G0xx_HAL_Driver/Inc/stm32g0xx_ll_adc.h **** /**
 572:Drivers/STM32G0xx_HAL_Driver/Inc/stm32g0xx_ll_adc.h ****   * @}
 573:Drivers/STM32G0xx_HAL_Driver/Inc/stm32g0xx_ll_adc.h ****   */
 574:Drivers/STM32G0xx_HAL_Driver/Inc/stm32g0xx_ll_adc.h **** 
 575:Drivers/STM32G0xx_HAL_Driver/Inc/stm32g0xx_ll_adc.h **** /** @defgroup ADC_LL_EC_GROUPS  ADC instance - Groups
 576:Drivers/STM32G0xx_HAL_Driver/Inc/stm32g0xx_ll_adc.h ****   * @{
 577:Drivers/STM32G0xx_HAL_Driver/Inc/stm32g0xx_ll_adc.h ****   */
 578:Drivers/STM32G0xx_HAL_Driver/Inc/stm32g0xx_ll_adc.h **** #define LL_ADC_GROUP_REGULAR               (0x00000001UL) /*!< ADC group regular (available on all 
 579:Drivers/STM32G0xx_HAL_Driver/Inc/stm32g0xx_ll_adc.h **** /**
 580:Drivers/STM32G0xx_HAL_Driver/Inc/stm32g0xx_ll_adc.h ****   * @}
 581:Drivers/STM32G0xx_HAL_Driver/Inc/stm32g0xx_ll_adc.h ****   */
 582:Drivers/STM32G0xx_HAL_Driver/Inc/stm32g0xx_ll_adc.h **** 
 583:Drivers/STM32G0xx_HAL_Driver/Inc/stm32g0xx_ll_adc.h **** /** @defgroup ADC_LL_EC_CHANNEL  ADC instance - Channel number
 584:Drivers/STM32G0xx_HAL_Driver/Inc/stm32g0xx_ll_adc.h ****   * @{
 585:Drivers/STM32G0xx_HAL_Driver/Inc/stm32g0xx_ll_adc.h ****   */
 586:Drivers/STM32G0xx_HAL_Driver/Inc/stm32g0xx_ll_adc.h **** #define LL_ADC_CHANNEL_0                   (ADC_CHANNEL_0_NUMBER  | ADC_CHANNEL_0_BITFIELD ) /*!< A
 587:Drivers/STM32G0xx_HAL_Driver/Inc/stm32g0xx_ll_adc.h **** #define LL_ADC_CHANNEL_1                   (ADC_CHANNEL_1_NUMBER  | ADC_CHANNEL_1_BITFIELD ) /*!< A
 588:Drivers/STM32G0xx_HAL_Driver/Inc/stm32g0xx_ll_adc.h **** #define LL_ADC_CHANNEL_2                   (ADC_CHANNEL_2_NUMBER  | ADC_CHANNEL_2_BITFIELD ) /*!< A
 589:Drivers/STM32G0xx_HAL_Driver/Inc/stm32g0xx_ll_adc.h **** #define LL_ADC_CHANNEL_3                   (ADC_CHANNEL_3_NUMBER  | ADC_CHANNEL_3_BITFIELD ) /*!< A
 590:Drivers/STM32G0xx_HAL_Driver/Inc/stm32g0xx_ll_adc.h **** #define LL_ADC_CHANNEL_4                   (ADC_CHANNEL_4_NUMBER  | ADC_CHANNEL_4_BITFIELD ) /*!< A
 591:Drivers/STM32G0xx_HAL_Driver/Inc/stm32g0xx_ll_adc.h **** #define LL_ADC_CHANNEL_5                   (ADC_CHANNEL_5_NUMBER  | ADC_CHANNEL_5_BITFIELD ) /*!< A
 592:Drivers/STM32G0xx_HAL_Driver/Inc/stm32g0xx_ll_adc.h **** #define LL_ADC_CHANNEL_6                   (ADC_CHANNEL_6_NUMBER  | ADC_CHANNEL_6_BITFIELD ) /*!< A
 593:Drivers/STM32G0xx_HAL_Driver/Inc/stm32g0xx_ll_adc.h **** #define LL_ADC_CHANNEL_7                   (ADC_CHANNEL_7_NUMBER  | ADC_CHANNEL_7_BITFIELD ) /*!< A
 594:Drivers/STM32G0xx_HAL_Driver/Inc/stm32g0xx_ll_adc.h **** #define LL_ADC_CHANNEL_8                   (ADC_CHANNEL_8_NUMBER  | ADC_CHANNEL_8_BITFIELD ) /*!< A
 595:Drivers/STM32G0xx_HAL_Driver/Inc/stm32g0xx_ll_adc.h **** #define LL_ADC_CHANNEL_9                   (ADC_CHANNEL_9_NUMBER  | ADC_CHANNEL_9_BITFIELD ) /*!< A
 596:Drivers/STM32G0xx_HAL_Driver/Inc/stm32g0xx_ll_adc.h **** #define LL_ADC_CHANNEL_10                  (ADC_CHANNEL_10_NUMBER | ADC_CHANNEL_10_BITFIELD) /*!< A
 597:Drivers/STM32G0xx_HAL_Driver/Inc/stm32g0xx_ll_adc.h **** #define LL_ADC_CHANNEL_11                  (ADC_CHANNEL_11_NUMBER | ADC_CHANNEL_11_BITFIELD) /*!< A
 598:Drivers/STM32G0xx_HAL_Driver/Inc/stm32g0xx_ll_adc.h **** #define LL_ADC_CHANNEL_12                  (ADC_CHANNEL_12_NUMBER | ADC_CHANNEL_12_BITFIELD) /*!< A
 599:Drivers/STM32G0xx_HAL_Driver/Inc/stm32g0xx_ll_adc.h **** #define LL_ADC_CHANNEL_13                  (ADC_CHANNEL_13_NUMBER | ADC_CHANNEL_13_BITFIELD) /*!< A
 600:Drivers/STM32G0xx_HAL_Driver/Inc/stm32g0xx_ll_adc.h **** #define LL_ADC_CHANNEL_14                  (ADC_CHANNEL_14_NUMBER | ADC_CHANNEL_14_BITFIELD) /*!< A
 601:Drivers/STM32G0xx_HAL_Driver/Inc/stm32g0xx_ll_adc.h **** #define LL_ADC_CHANNEL_15                  (ADC_CHANNEL_15_NUMBER | ADC_CHANNEL_15_BITFIELD) /*!< A
 602:Drivers/STM32G0xx_HAL_Driver/Inc/stm32g0xx_ll_adc.h **** #define LL_ADC_CHANNEL_16                  (ADC_CHANNEL_16_NUMBER | ADC_CHANNEL_16_BITFIELD) /*!< A
 603:Drivers/STM32G0xx_HAL_Driver/Inc/stm32g0xx_ll_adc.h **** #define LL_ADC_CHANNEL_17                  (ADC_CHANNEL_17_NUMBER | ADC_CHANNEL_17_BITFIELD) /*!< A
 604:Drivers/STM32G0xx_HAL_Driver/Inc/stm32g0xx_ll_adc.h **** #define LL_ADC_CHANNEL_18                  (ADC_CHANNEL_18_NUMBER | ADC_CHANNEL_18_BITFIELD) /*!< A
 605:Drivers/STM32G0xx_HAL_Driver/Inc/stm32g0xx_ll_adc.h **** #define LL_ADC_CHANNEL_VREFINT             (LL_ADC_CHANNEL_13 | ADC_CHANNEL_ID_INTERNAL_CH)  /*!< A
 606:Drivers/STM32G0xx_HAL_Driver/Inc/stm32g0xx_ll_adc.h **** #define LL_ADC_CHANNEL_TEMPSENSOR          (LL_ADC_CHANNEL_12 | ADC_CHANNEL_ID_INTERNAL_CH)  /*!< A
 607:Drivers/STM32G0xx_HAL_Driver/Inc/stm32g0xx_ll_adc.h **** #define LL_ADC_CHANNEL_VBAT                (LL_ADC_CHANNEL_14 | ADC_CHANNEL_ID_INTERNAL_CH)  /*!< A
 608:Drivers/STM32G0xx_HAL_Driver/Inc/stm32g0xx_ll_adc.h **** /**
ARM GAS  /tmp/ccAd34n9.s 			page 15


 609:Drivers/STM32G0xx_HAL_Driver/Inc/stm32g0xx_ll_adc.h ****   * @}
 610:Drivers/STM32G0xx_HAL_Driver/Inc/stm32g0xx_ll_adc.h ****   */
 611:Drivers/STM32G0xx_HAL_Driver/Inc/stm32g0xx_ll_adc.h **** 
 612:Drivers/STM32G0xx_HAL_Driver/Inc/stm32g0xx_ll_adc.h **** /** @defgroup ADC_LL_EC_REG_TRIGGER_SOURCE  ADC group regular - Trigger source
 613:Drivers/STM32G0xx_HAL_Driver/Inc/stm32g0xx_ll_adc.h ****   * @{
 614:Drivers/STM32G0xx_HAL_Driver/Inc/stm32g0xx_ll_adc.h ****   */
 615:Drivers/STM32G0xx_HAL_Driver/Inc/stm32g0xx_ll_adc.h **** #define LL_ADC_REG_TRIG_SOFTWARE           (0x00000000UL)                                          
 616:Drivers/STM32G0xx_HAL_Driver/Inc/stm32g0xx_ll_adc.h **** #define LL_ADC_REG_TRIG_EXT_TIM1_TRGO2     (                                                       
 617:Drivers/STM32G0xx_HAL_Driver/Inc/stm32g0xx_ll_adc.h **** #define LL_ADC_REG_TRIG_EXT_TIM1_CH4       (                                          ADC_CFGR1_EXT
 618:Drivers/STM32G0xx_HAL_Driver/Inc/stm32g0xx_ll_adc.h **** #if defined(TIM2)
 619:Drivers/STM32G0xx_HAL_Driver/Inc/stm32g0xx_ll_adc.h **** #define LL_ADC_REG_TRIG_EXT_TIM2_TRGO      (                     ADC_CFGR1_EXTSEL_1                
 620:Drivers/STM32G0xx_HAL_Driver/Inc/stm32g0xx_ll_adc.h **** #endif /* TIM2 */
 621:Drivers/STM32G0xx_HAL_Driver/Inc/stm32g0xx_ll_adc.h **** #define LL_ADC_REG_TRIG_EXT_TIM3_TRGO      (                     ADC_CFGR1_EXTSEL_1 | ADC_CFGR1_EXT
 622:Drivers/STM32G0xx_HAL_Driver/Inc/stm32g0xx_ll_adc.h **** #if defined(TIM4)
 623:Drivers/STM32G0xx_HAL_Driver/Inc/stm32g0xx_ll_adc.h **** #define LL_ADC_REG_TRIG_EXT_TIM4_TRGO      (ADC_CFGR1_EXTSEL_2 | ADC_CFGR1_EXTSEL_1                
 624:Drivers/STM32G0xx_HAL_Driver/Inc/stm32g0xx_ll_adc.h **** #endif /* TIM4 */
 625:Drivers/STM32G0xx_HAL_Driver/Inc/stm32g0xx_ll_adc.h **** #if defined(TIM6)
 626:Drivers/STM32G0xx_HAL_Driver/Inc/stm32g0xx_ll_adc.h **** #define LL_ADC_REG_TRIG_EXT_TIM6_TRGO      (ADC_CFGR1_EXTSEL_2                      | ADC_CFGR1_EXT
 627:Drivers/STM32G0xx_HAL_Driver/Inc/stm32g0xx_ll_adc.h **** #endif /* TIM6 */
 628:Drivers/STM32G0xx_HAL_Driver/Inc/stm32g0xx_ll_adc.h **** #if defined(TIM15)
 629:Drivers/STM32G0xx_HAL_Driver/Inc/stm32g0xx_ll_adc.h **** #define LL_ADC_REG_TRIG_EXT_TIM15_TRGO     (ADC_CFGR1_EXTSEL_2                                     
 630:Drivers/STM32G0xx_HAL_Driver/Inc/stm32g0xx_ll_adc.h **** #endif /* TIM15 */
 631:Drivers/STM32G0xx_HAL_Driver/Inc/stm32g0xx_ll_adc.h **** #define LL_ADC_REG_TRIG_EXT_EXTI_LINE11    (ADC_CFGR1_EXTSEL_2 | ADC_CFGR1_EXTSEL_1 | ADC_CFGR1_EXT
 632:Drivers/STM32G0xx_HAL_Driver/Inc/stm32g0xx_ll_adc.h **** /**
 633:Drivers/STM32G0xx_HAL_Driver/Inc/stm32g0xx_ll_adc.h ****   * @}
 634:Drivers/STM32G0xx_HAL_Driver/Inc/stm32g0xx_ll_adc.h ****   */
 635:Drivers/STM32G0xx_HAL_Driver/Inc/stm32g0xx_ll_adc.h **** 
 636:Drivers/STM32G0xx_HAL_Driver/Inc/stm32g0xx_ll_adc.h **** /** @defgroup ADC_LL_EC_REG_TRIGGER_EDGE  ADC group regular - Trigger edge
 637:Drivers/STM32G0xx_HAL_Driver/Inc/stm32g0xx_ll_adc.h ****   * @{
 638:Drivers/STM32G0xx_HAL_Driver/Inc/stm32g0xx_ll_adc.h ****   */
 639:Drivers/STM32G0xx_HAL_Driver/Inc/stm32g0xx_ll_adc.h **** #define LL_ADC_REG_TRIG_EXT_RISING         (                    ADC_CFGR1_EXTEN_0) /*!< ADC group r
 640:Drivers/STM32G0xx_HAL_Driver/Inc/stm32g0xx_ll_adc.h **** #define LL_ADC_REG_TRIG_EXT_FALLING        (ADC_CFGR1_EXTEN_1                    ) /*!< ADC group r
 641:Drivers/STM32G0xx_HAL_Driver/Inc/stm32g0xx_ll_adc.h **** #define LL_ADC_REG_TRIG_EXT_RISINGFALLING  (ADC_CFGR1_EXTEN_1 | ADC_CFGR1_EXTEN_0) /*!< ADC group r
 642:Drivers/STM32G0xx_HAL_Driver/Inc/stm32g0xx_ll_adc.h **** /**
 643:Drivers/STM32G0xx_HAL_Driver/Inc/stm32g0xx_ll_adc.h ****   * @}
 644:Drivers/STM32G0xx_HAL_Driver/Inc/stm32g0xx_ll_adc.h ****   */
 645:Drivers/STM32G0xx_HAL_Driver/Inc/stm32g0xx_ll_adc.h **** 
 646:Drivers/STM32G0xx_HAL_Driver/Inc/stm32g0xx_ll_adc.h **** /** @defgroup ADC_LL_EC_REG_CONTINUOUS_MODE  ADC group regular - Continuous mode
 647:Drivers/STM32G0xx_HAL_Driver/Inc/stm32g0xx_ll_adc.h ****   * @{
 648:Drivers/STM32G0xx_HAL_Driver/Inc/stm32g0xx_ll_adc.h ****   */
 649:Drivers/STM32G0xx_HAL_Driver/Inc/stm32g0xx_ll_adc.h **** #define LL_ADC_REG_CONV_SINGLE             (0x00000000UL)          /*!< ADC conversions are perform
 650:Drivers/STM32G0xx_HAL_Driver/Inc/stm32g0xx_ll_adc.h **** #define LL_ADC_REG_CONV_CONTINUOUS         (ADC_CFGR1_CONT)        /*!< ADC conversions are perform
 651:Drivers/STM32G0xx_HAL_Driver/Inc/stm32g0xx_ll_adc.h **** /**
 652:Drivers/STM32G0xx_HAL_Driver/Inc/stm32g0xx_ll_adc.h ****   * @}
 653:Drivers/STM32G0xx_HAL_Driver/Inc/stm32g0xx_ll_adc.h ****   */
 654:Drivers/STM32G0xx_HAL_Driver/Inc/stm32g0xx_ll_adc.h **** 
 655:Drivers/STM32G0xx_HAL_Driver/Inc/stm32g0xx_ll_adc.h **** /** @defgroup ADC_LL_EC_REG_DMA_TRANSFER  ADC group regular - DMA transfer of ADC conversion data
 656:Drivers/STM32G0xx_HAL_Driver/Inc/stm32g0xx_ll_adc.h ****   * @{
 657:Drivers/STM32G0xx_HAL_Driver/Inc/stm32g0xx_ll_adc.h ****   */
 658:Drivers/STM32G0xx_HAL_Driver/Inc/stm32g0xx_ll_adc.h **** #define LL_ADC_REG_DMA_TRANSFER_NONE       (0x00000000UL)                        /*!< ADC conversio
 659:Drivers/STM32G0xx_HAL_Driver/Inc/stm32g0xx_ll_adc.h **** #define LL_ADC_REG_DMA_TRANSFER_LIMITED    (                   ADC_CFGR1_DMAEN)  /*!< ADC conversio
 660:Drivers/STM32G0xx_HAL_Driver/Inc/stm32g0xx_ll_adc.h **** #define LL_ADC_REG_DMA_TRANSFER_UNLIMITED  (ADC_CFGR1_DMACFG | ADC_CFGR1_DMAEN)  /*!< ADC conversio
 661:Drivers/STM32G0xx_HAL_Driver/Inc/stm32g0xx_ll_adc.h **** /**
 662:Drivers/STM32G0xx_HAL_Driver/Inc/stm32g0xx_ll_adc.h ****   * @}
 663:Drivers/STM32G0xx_HAL_Driver/Inc/stm32g0xx_ll_adc.h ****   */
 664:Drivers/STM32G0xx_HAL_Driver/Inc/stm32g0xx_ll_adc.h **** 
 665:Drivers/STM32G0xx_HAL_Driver/Inc/stm32g0xx_ll_adc.h **** /** @defgroup ADC_LL_EC_REG_OVR_DATA_BEHAVIOR  ADC group regular - Overrun behavior on conversion d
ARM GAS  /tmp/ccAd34n9.s 			page 16


 666:Drivers/STM32G0xx_HAL_Driver/Inc/stm32g0xx_ll_adc.h ****   * @{
 667:Drivers/STM32G0xx_HAL_Driver/Inc/stm32g0xx_ll_adc.h ****   */
 668:Drivers/STM32G0xx_HAL_Driver/Inc/stm32g0xx_ll_adc.h **** #define LL_ADC_REG_OVR_DATA_PRESERVED      (0x00000000UL)         /*!< ADC group regular behavior i
 669:Drivers/STM32G0xx_HAL_Driver/Inc/stm32g0xx_ll_adc.h **** #define LL_ADC_REG_OVR_DATA_OVERWRITTEN    (ADC_CFGR1_OVRMOD)     /*!< ADC group regular behavior i
 670:Drivers/STM32G0xx_HAL_Driver/Inc/stm32g0xx_ll_adc.h **** /**
 671:Drivers/STM32G0xx_HAL_Driver/Inc/stm32g0xx_ll_adc.h ****   * @}
 672:Drivers/STM32G0xx_HAL_Driver/Inc/stm32g0xx_ll_adc.h ****   */
 673:Drivers/STM32G0xx_HAL_Driver/Inc/stm32g0xx_ll_adc.h **** 
 674:Drivers/STM32G0xx_HAL_Driver/Inc/stm32g0xx_ll_adc.h **** /** @defgroup ADC_LL_EC_REG_SEQ_MODE  ADC group regular - Sequencer configuration flexibility
 675:Drivers/STM32G0xx_HAL_Driver/Inc/stm32g0xx_ll_adc.h ****   * @{
 676:Drivers/STM32G0xx_HAL_Driver/Inc/stm32g0xx_ll_adc.h ****   */
 677:Drivers/STM32G0xx_HAL_Driver/Inc/stm32g0xx_ll_adc.h **** #define LL_ADC_REG_SEQ_FIXED               (0x00000000UL)         /*!< Sequencer configured to not 
 678:Drivers/STM32G0xx_HAL_Driver/Inc/stm32g0xx_ll_adc.h **** #define LL_ADC_REG_SEQ_CONFIGURABLE        (ADC_CFGR1_CHSELRMOD)  /*!< Sequencer configured to full
 679:Drivers/STM32G0xx_HAL_Driver/Inc/stm32g0xx_ll_adc.h **** /**
 680:Drivers/STM32G0xx_HAL_Driver/Inc/stm32g0xx_ll_adc.h ****   * @}
 681:Drivers/STM32G0xx_HAL_Driver/Inc/stm32g0xx_ll_adc.h ****   */
 682:Drivers/STM32G0xx_HAL_Driver/Inc/stm32g0xx_ll_adc.h **** 
 683:Drivers/STM32G0xx_HAL_Driver/Inc/stm32g0xx_ll_adc.h **** /** @defgroup ADC_LL_EC_REG_SEQ_SCAN_LENGTH  ADC group regular - Sequencer scan length
 684:Drivers/STM32G0xx_HAL_Driver/Inc/stm32g0xx_ll_adc.h ****   * @{
 685:Drivers/STM32G0xx_HAL_Driver/Inc/stm32g0xx_ll_adc.h ****   */
 686:Drivers/STM32G0xx_HAL_Driver/Inc/stm32g0xx_ll_adc.h **** #define LL_ADC_REG_SEQ_SCAN_DISABLE        (ADC_CHSELR_SQ2)       /*!< ADC group regular sequencer 
 687:Drivers/STM32G0xx_HAL_Driver/Inc/stm32g0xx_ll_adc.h **** #define LL_ADC_REG_SEQ_SCAN_ENABLE_2RANKS  (ADC_CHSELR_SQ3)       /*!< ADC group regular sequencer 
 688:Drivers/STM32G0xx_HAL_Driver/Inc/stm32g0xx_ll_adc.h **** #define LL_ADC_REG_SEQ_SCAN_ENABLE_3RANKS  (ADC_CHSELR_SQ4)       /*!< ADC group regular sequencer 
 689:Drivers/STM32G0xx_HAL_Driver/Inc/stm32g0xx_ll_adc.h **** #define LL_ADC_REG_SEQ_SCAN_ENABLE_4RANKS  (ADC_CHSELR_SQ5)       /*!< ADC group regular sequencer 
 690:Drivers/STM32G0xx_HAL_Driver/Inc/stm32g0xx_ll_adc.h **** #define LL_ADC_REG_SEQ_SCAN_ENABLE_5RANKS  (ADC_CHSELR_SQ6)       /*!< ADC group regular sequencer 
 691:Drivers/STM32G0xx_HAL_Driver/Inc/stm32g0xx_ll_adc.h **** #define LL_ADC_REG_SEQ_SCAN_ENABLE_6RANKS  (ADC_CHSELR_SQ7)       /*!< ADC group regular sequencer 
 692:Drivers/STM32G0xx_HAL_Driver/Inc/stm32g0xx_ll_adc.h **** #define LL_ADC_REG_SEQ_SCAN_ENABLE_7RANKS  (ADC_CHSELR_SQ8)       /*!< ADC group regular sequencer 
 693:Drivers/STM32G0xx_HAL_Driver/Inc/stm32g0xx_ll_adc.h **** #define LL_ADC_REG_SEQ_SCAN_ENABLE_8RANKS  (0x00000000UL)         /*!< ADC group regular sequencer 
 694:Drivers/STM32G0xx_HAL_Driver/Inc/stm32g0xx_ll_adc.h **** /**
 695:Drivers/STM32G0xx_HAL_Driver/Inc/stm32g0xx_ll_adc.h ****   * @}
 696:Drivers/STM32G0xx_HAL_Driver/Inc/stm32g0xx_ll_adc.h ****   */
 697:Drivers/STM32G0xx_HAL_Driver/Inc/stm32g0xx_ll_adc.h **** 
 698:Drivers/STM32G0xx_HAL_Driver/Inc/stm32g0xx_ll_adc.h **** /** @defgroup ADC_LL_EC_REG_SEQ_SCAN_DIRECTION  ADC group regular - Sequencer scan direction
 699:Drivers/STM32G0xx_HAL_Driver/Inc/stm32g0xx_ll_adc.h ****   * @{
 700:Drivers/STM32G0xx_HAL_Driver/Inc/stm32g0xx_ll_adc.h ****   */
 701:Drivers/STM32G0xx_HAL_Driver/Inc/stm32g0xx_ll_adc.h **** #define LL_ADC_REG_SEQ_SCAN_DIR_FORWARD    (0x00000000UL)         /*!< On this STM32 series, parame
 702:Drivers/STM32G0xx_HAL_Driver/Inc/stm32g0xx_ll_adc.h **** #define LL_ADC_REG_SEQ_SCAN_DIR_BACKWARD   (ADC_CFGR1_SCANDIR)    /*!< On this STM32 series, parame
 703:Drivers/STM32G0xx_HAL_Driver/Inc/stm32g0xx_ll_adc.h **** /**
 704:Drivers/STM32G0xx_HAL_Driver/Inc/stm32g0xx_ll_adc.h ****   * @}
 705:Drivers/STM32G0xx_HAL_Driver/Inc/stm32g0xx_ll_adc.h ****   */
 706:Drivers/STM32G0xx_HAL_Driver/Inc/stm32g0xx_ll_adc.h **** 
 707:Drivers/STM32G0xx_HAL_Driver/Inc/stm32g0xx_ll_adc.h **** /** @defgroup ADC_LL_EC_REG_SEQ_DISCONT_MODE  ADC group regular - Sequencer discontinuous mode
 708:Drivers/STM32G0xx_HAL_Driver/Inc/stm32g0xx_ll_adc.h ****   * @{
 709:Drivers/STM32G0xx_HAL_Driver/Inc/stm32g0xx_ll_adc.h ****   */
 710:Drivers/STM32G0xx_HAL_Driver/Inc/stm32g0xx_ll_adc.h **** #define LL_ADC_REG_SEQ_DISCONT_DISABLE     (0x00000000UL)                                          
 711:Drivers/STM32G0xx_HAL_Driver/Inc/stm32g0xx_ll_adc.h **** #define LL_ADC_REG_SEQ_DISCONT_1RANK       (ADC_CFGR1_DISCEN)                                      
 712:Drivers/STM32G0xx_HAL_Driver/Inc/stm32g0xx_ll_adc.h **** /**
 713:Drivers/STM32G0xx_HAL_Driver/Inc/stm32g0xx_ll_adc.h ****   * @}
 714:Drivers/STM32G0xx_HAL_Driver/Inc/stm32g0xx_ll_adc.h ****   */
 715:Drivers/STM32G0xx_HAL_Driver/Inc/stm32g0xx_ll_adc.h **** 
 716:Drivers/STM32G0xx_HAL_Driver/Inc/stm32g0xx_ll_adc.h **** /** @defgroup ADC_LL_EC_REG_SEQ_RANKS  ADC group regular - Sequencer ranks
 717:Drivers/STM32G0xx_HAL_Driver/Inc/stm32g0xx_ll_adc.h ****   * @{
 718:Drivers/STM32G0xx_HAL_Driver/Inc/stm32g0xx_ll_adc.h ****   */
 719:Drivers/STM32G0xx_HAL_Driver/Inc/stm32g0xx_ll_adc.h **** #define LL_ADC_REG_RANK_1                  (ADC_REG_RANK_1_SQRX_BITOFFSET_POS)  /*!< ADC group regu
 720:Drivers/STM32G0xx_HAL_Driver/Inc/stm32g0xx_ll_adc.h **** #define LL_ADC_REG_RANK_2                  (ADC_REG_RANK_2_SQRX_BITOFFSET_POS)  /*!< ADC group regu
 721:Drivers/STM32G0xx_HAL_Driver/Inc/stm32g0xx_ll_adc.h **** #define LL_ADC_REG_RANK_3                  (ADC_REG_RANK_3_SQRX_BITOFFSET_POS)  /*!< ADC group regu
 722:Drivers/STM32G0xx_HAL_Driver/Inc/stm32g0xx_ll_adc.h **** #define LL_ADC_REG_RANK_4                  (ADC_REG_RANK_4_SQRX_BITOFFSET_POS)  /*!< ADC group regu
ARM GAS  /tmp/ccAd34n9.s 			page 17


 723:Drivers/STM32G0xx_HAL_Driver/Inc/stm32g0xx_ll_adc.h **** #define LL_ADC_REG_RANK_5                  (ADC_REG_RANK_5_SQRX_BITOFFSET_POS)  /*!< ADC group regu
 724:Drivers/STM32G0xx_HAL_Driver/Inc/stm32g0xx_ll_adc.h **** #define LL_ADC_REG_RANK_6                  (ADC_REG_RANK_6_SQRX_BITOFFSET_POS)  /*!< ADC group regu
 725:Drivers/STM32G0xx_HAL_Driver/Inc/stm32g0xx_ll_adc.h **** #define LL_ADC_REG_RANK_7                  (ADC_REG_RANK_7_SQRX_BITOFFSET_POS)  /*!< ADC group regu
 726:Drivers/STM32G0xx_HAL_Driver/Inc/stm32g0xx_ll_adc.h **** #define LL_ADC_REG_RANK_8                  (ADC_REG_RANK_8_SQRX_BITOFFSET_POS)  /*!< ADC group regu
 727:Drivers/STM32G0xx_HAL_Driver/Inc/stm32g0xx_ll_adc.h **** /**
 728:Drivers/STM32G0xx_HAL_Driver/Inc/stm32g0xx_ll_adc.h ****   * @}
 729:Drivers/STM32G0xx_HAL_Driver/Inc/stm32g0xx_ll_adc.h ****   */
 730:Drivers/STM32G0xx_HAL_Driver/Inc/stm32g0xx_ll_adc.h **** 
 731:Drivers/STM32G0xx_HAL_Driver/Inc/stm32g0xx_ll_adc.h **** /** @defgroup ADC_LL_EC_CHANNEL_SAMPLINGTIME  Channel - Sampling time
 732:Drivers/STM32G0xx_HAL_Driver/Inc/stm32g0xx_ll_adc.h ****   * @{
 733:Drivers/STM32G0xx_HAL_Driver/Inc/stm32g0xx_ll_adc.h ****   */
 734:Drivers/STM32G0xx_HAL_Driver/Inc/stm32g0xx_ll_adc.h **** #define LL_ADC_SAMPLINGTIME_1CYCLE_5       (0x00000000UL)                                        /*
 735:Drivers/STM32G0xx_HAL_Driver/Inc/stm32g0xx_ll_adc.h **** #define LL_ADC_SAMPLINGTIME_3CYCLES_5      (ADC_SMPR_SMP1_0)                                     /*
 736:Drivers/STM32G0xx_HAL_Driver/Inc/stm32g0xx_ll_adc.h **** #define LL_ADC_SAMPLINGTIME_7CYCLES_5      (ADC_SMPR_SMP1_1)                                     /*
 737:Drivers/STM32G0xx_HAL_Driver/Inc/stm32g0xx_ll_adc.h **** #define LL_ADC_SAMPLINGTIME_12CYCLES_5     (ADC_SMPR_SMP1_1 | ADC_SMPR_SMP1_0)                   /*
 738:Drivers/STM32G0xx_HAL_Driver/Inc/stm32g0xx_ll_adc.h **** #define LL_ADC_SAMPLINGTIME_19CYCLES_5     (ADC_SMPR_SMP1_2)                                     /*
 739:Drivers/STM32G0xx_HAL_Driver/Inc/stm32g0xx_ll_adc.h **** #define LL_ADC_SAMPLINGTIME_39CYCLES_5     (ADC_SMPR_SMP1_2 | ADC_SMPR_SMP1_0)                   /*
 740:Drivers/STM32G0xx_HAL_Driver/Inc/stm32g0xx_ll_adc.h **** #define LL_ADC_SAMPLINGTIME_79CYCLES_5     (ADC_SMPR_SMP1_2 | ADC_SMPR_SMP1_1)                   /*
 741:Drivers/STM32G0xx_HAL_Driver/Inc/stm32g0xx_ll_adc.h **** #define LL_ADC_SAMPLINGTIME_160CYCLES_5    (ADC_SMPR_SMP1_2 | ADC_SMPR_SMP1_1 | ADC_SMPR_SMP1_0) /*
 742:Drivers/STM32G0xx_HAL_Driver/Inc/stm32g0xx_ll_adc.h **** /**
 743:Drivers/STM32G0xx_HAL_Driver/Inc/stm32g0xx_ll_adc.h ****   * @}
 744:Drivers/STM32G0xx_HAL_Driver/Inc/stm32g0xx_ll_adc.h ****   */
 745:Drivers/STM32G0xx_HAL_Driver/Inc/stm32g0xx_ll_adc.h **** 
 746:Drivers/STM32G0xx_HAL_Driver/Inc/stm32g0xx_ll_adc.h **** /** @defgroup ADC_LL_EC_AWD_NUMBER Analog watchdog - Analog watchdog number
 747:Drivers/STM32G0xx_HAL_Driver/Inc/stm32g0xx_ll_adc.h ****   * @{
 748:Drivers/STM32G0xx_HAL_Driver/Inc/stm32g0xx_ll_adc.h ****   */
 749:Drivers/STM32G0xx_HAL_Driver/Inc/stm32g0xx_ll_adc.h **** #define LL_ADC_AWD1                        (ADC_AWD_CR1_CHANNEL_MASK  | ADC_AWD_CR1_REGOFFSET) /*!<
 750:Drivers/STM32G0xx_HAL_Driver/Inc/stm32g0xx_ll_adc.h **** #define LL_ADC_AWD2                        (ADC_AWD_CR23_CHANNEL_MASK | ADC_AWD_CR2_REGOFFSET) /*!<
 751:Drivers/STM32G0xx_HAL_Driver/Inc/stm32g0xx_ll_adc.h **** #define LL_ADC_AWD3                        (ADC_AWD_CR23_CHANNEL_MASK | ADC_AWD_CR3_REGOFFSET) /*!<
 752:Drivers/STM32G0xx_HAL_Driver/Inc/stm32g0xx_ll_adc.h **** /**
 753:Drivers/STM32G0xx_HAL_Driver/Inc/stm32g0xx_ll_adc.h ****   * @}
 754:Drivers/STM32G0xx_HAL_Driver/Inc/stm32g0xx_ll_adc.h ****   */
 755:Drivers/STM32G0xx_HAL_Driver/Inc/stm32g0xx_ll_adc.h **** 
 756:Drivers/STM32G0xx_HAL_Driver/Inc/stm32g0xx_ll_adc.h **** /** @defgroup ADC_LL_EC_AWD_CHANNELS  Analog watchdog - Monitored channels
 757:Drivers/STM32G0xx_HAL_Driver/Inc/stm32g0xx_ll_adc.h ****   * @{
 758:Drivers/STM32G0xx_HAL_Driver/Inc/stm32g0xx_ll_adc.h ****   */
 759:Drivers/STM32G0xx_HAL_Driver/Inc/stm32g0xx_ll_adc.h **** #define LL_ADC_AWD_DISABLE                 (0x00000000UL)                                          
 760:Drivers/STM32G0xx_HAL_Driver/Inc/stm32g0xx_ll_adc.h **** #define LL_ADC_AWD_ALL_CHANNELS_REG        (ADC_AWD_CR23_CHANNEL_MASK                         | ADC
 761:Drivers/STM32G0xx_HAL_Driver/Inc/stm32g0xx_ll_adc.h **** #define LL_ADC_AWD_CHANNEL_0_REG           ((LL_ADC_CHANNEL_0  & ADC_CHANNEL_ID_MASK)         | ADC
 762:Drivers/STM32G0xx_HAL_Driver/Inc/stm32g0xx_ll_adc.h **** #define LL_ADC_AWD_CHANNEL_1_REG           ((LL_ADC_CHANNEL_1  & ADC_CHANNEL_ID_MASK)         | ADC
 763:Drivers/STM32G0xx_HAL_Driver/Inc/stm32g0xx_ll_adc.h **** #define LL_ADC_AWD_CHANNEL_2_REG           ((LL_ADC_CHANNEL_2  & ADC_CHANNEL_ID_MASK)         | ADC
 764:Drivers/STM32G0xx_HAL_Driver/Inc/stm32g0xx_ll_adc.h **** #define LL_ADC_AWD_CHANNEL_3_REG           ((LL_ADC_CHANNEL_3  & ADC_CHANNEL_ID_MASK)         | ADC
 765:Drivers/STM32G0xx_HAL_Driver/Inc/stm32g0xx_ll_adc.h **** #define LL_ADC_AWD_CHANNEL_4_REG           ((LL_ADC_CHANNEL_4  & ADC_CHANNEL_ID_MASK)         | ADC
 766:Drivers/STM32G0xx_HAL_Driver/Inc/stm32g0xx_ll_adc.h **** #define LL_ADC_AWD_CHANNEL_5_REG           ((LL_ADC_CHANNEL_5  & ADC_CHANNEL_ID_MASK)         | ADC
 767:Drivers/STM32G0xx_HAL_Driver/Inc/stm32g0xx_ll_adc.h **** #define LL_ADC_AWD_CHANNEL_6_REG           ((LL_ADC_CHANNEL_6  & ADC_CHANNEL_ID_MASK)         | ADC
 768:Drivers/STM32G0xx_HAL_Driver/Inc/stm32g0xx_ll_adc.h **** #define LL_ADC_AWD_CHANNEL_7_REG           ((LL_ADC_CHANNEL_7  & ADC_CHANNEL_ID_MASK)         | ADC
 769:Drivers/STM32G0xx_HAL_Driver/Inc/stm32g0xx_ll_adc.h **** #define LL_ADC_AWD_CHANNEL_8_REG           ((LL_ADC_CHANNEL_8  & ADC_CHANNEL_ID_MASK)         | ADC
 770:Drivers/STM32G0xx_HAL_Driver/Inc/stm32g0xx_ll_adc.h **** #define LL_ADC_AWD_CHANNEL_9_REG           ((LL_ADC_CHANNEL_9  & ADC_CHANNEL_ID_MASK)         | ADC
 771:Drivers/STM32G0xx_HAL_Driver/Inc/stm32g0xx_ll_adc.h **** #define LL_ADC_AWD_CHANNEL_10_REG          ((LL_ADC_CHANNEL_10 & ADC_CHANNEL_ID_MASK)         | ADC
 772:Drivers/STM32G0xx_HAL_Driver/Inc/stm32g0xx_ll_adc.h **** #define LL_ADC_AWD_CHANNEL_11_REG          ((LL_ADC_CHANNEL_11 & ADC_CHANNEL_ID_MASK)         | ADC
 773:Drivers/STM32G0xx_HAL_Driver/Inc/stm32g0xx_ll_adc.h **** #define LL_ADC_AWD_CHANNEL_12_REG          ((LL_ADC_CHANNEL_12 & ADC_CHANNEL_ID_MASK)         | ADC
 774:Drivers/STM32G0xx_HAL_Driver/Inc/stm32g0xx_ll_adc.h **** #define LL_ADC_AWD_CHANNEL_13_REG          ((LL_ADC_CHANNEL_13 & ADC_CHANNEL_ID_MASK)         | ADC
 775:Drivers/STM32G0xx_HAL_Driver/Inc/stm32g0xx_ll_adc.h **** #define LL_ADC_AWD_CHANNEL_14_REG          ((LL_ADC_CHANNEL_14 & ADC_CHANNEL_ID_MASK)         | ADC
 776:Drivers/STM32G0xx_HAL_Driver/Inc/stm32g0xx_ll_adc.h **** #define LL_ADC_AWD_CHANNEL_15_REG          ((LL_ADC_CHANNEL_15 & ADC_CHANNEL_ID_MASK)         | ADC
 777:Drivers/STM32G0xx_HAL_Driver/Inc/stm32g0xx_ll_adc.h **** #define LL_ADC_AWD_CHANNEL_16_REG          ((LL_ADC_CHANNEL_16 & ADC_CHANNEL_ID_MASK)         | ADC
 778:Drivers/STM32G0xx_HAL_Driver/Inc/stm32g0xx_ll_adc.h **** #define LL_ADC_AWD_CHANNEL_17_REG          ((LL_ADC_CHANNEL_17 & ADC_CHANNEL_ID_MASK)         | ADC
 779:Drivers/STM32G0xx_HAL_Driver/Inc/stm32g0xx_ll_adc.h **** #define LL_ADC_AWD_CHANNEL_18_REG          ((LL_ADC_CHANNEL_18 & ADC_CHANNEL_ID_MASK)         | ADC
ARM GAS  /tmp/ccAd34n9.s 			page 18


 780:Drivers/STM32G0xx_HAL_Driver/Inc/stm32g0xx_ll_adc.h **** #define LL_ADC_AWD_CH_VREFINT_REG          ((LL_ADC_CHANNEL_VREFINT    & ADC_CHANNEL_ID_MASK) | ADC
 781:Drivers/STM32G0xx_HAL_Driver/Inc/stm32g0xx_ll_adc.h **** #define LL_ADC_AWD_CH_TEMPSENSOR_REG       ((LL_ADC_CHANNEL_TEMPSENSOR & ADC_CHANNEL_ID_MASK) | ADC
 782:Drivers/STM32G0xx_HAL_Driver/Inc/stm32g0xx_ll_adc.h **** #define LL_ADC_AWD_CH_VBAT_REG             ((LL_ADC_CHANNEL_VBAT       & ADC_CHANNEL_ID_MASK) | ADC
 783:Drivers/STM32G0xx_HAL_Driver/Inc/stm32g0xx_ll_adc.h **** /**
 784:Drivers/STM32G0xx_HAL_Driver/Inc/stm32g0xx_ll_adc.h ****   * @}
 785:Drivers/STM32G0xx_HAL_Driver/Inc/stm32g0xx_ll_adc.h ****   */
 786:Drivers/STM32G0xx_HAL_Driver/Inc/stm32g0xx_ll_adc.h **** 
 787:Drivers/STM32G0xx_HAL_Driver/Inc/stm32g0xx_ll_adc.h **** /** @defgroup ADC_LL_EC_AWD_THRESHOLDS  Analog watchdog - Thresholds
 788:Drivers/STM32G0xx_HAL_Driver/Inc/stm32g0xx_ll_adc.h ****   * @{
 789:Drivers/STM32G0xx_HAL_Driver/Inc/stm32g0xx_ll_adc.h ****   */
 790:Drivers/STM32G0xx_HAL_Driver/Inc/stm32g0xx_ll_adc.h **** #define LL_ADC_AWD_THRESHOLD_HIGH          (ADC_TR1_HT1              ) /*!< ADC analog watchdog thr
 791:Drivers/STM32G0xx_HAL_Driver/Inc/stm32g0xx_ll_adc.h **** #define LL_ADC_AWD_THRESHOLD_LOW           (              ADC_TR1_LT1) /*!< ADC analog watchdog thr
 792:Drivers/STM32G0xx_HAL_Driver/Inc/stm32g0xx_ll_adc.h **** #define LL_ADC_AWD_THRESHOLDS_HIGH_LOW     (ADC_TR1_HT1 | ADC_TR1_LT1) /*!< ADC analog watchdog bot
 793:Drivers/STM32G0xx_HAL_Driver/Inc/stm32g0xx_ll_adc.h **** /**
 794:Drivers/STM32G0xx_HAL_Driver/Inc/stm32g0xx_ll_adc.h ****   * @}
 795:Drivers/STM32G0xx_HAL_Driver/Inc/stm32g0xx_ll_adc.h ****   */
 796:Drivers/STM32G0xx_HAL_Driver/Inc/stm32g0xx_ll_adc.h **** 
 797:Drivers/STM32G0xx_HAL_Driver/Inc/stm32g0xx_ll_adc.h **** /** @defgroup ADC_LL_EC_OVS_SCOPE  Oversampling - Oversampling scope
 798:Drivers/STM32G0xx_HAL_Driver/Inc/stm32g0xx_ll_adc.h ****   * @{
 799:Drivers/STM32G0xx_HAL_Driver/Inc/stm32g0xx_ll_adc.h ****   */
 800:Drivers/STM32G0xx_HAL_Driver/Inc/stm32g0xx_ll_adc.h **** #define LL_ADC_OVS_DISABLE                 (0x00000000UL)                                        /*
 801:Drivers/STM32G0xx_HAL_Driver/Inc/stm32g0xx_ll_adc.h **** #define LL_ADC_OVS_GRP_REGULAR_CONTINUED   (                                    ADC_CFGR2_OVSE)  /*
 802:Drivers/STM32G0xx_HAL_Driver/Inc/stm32g0xx_ll_adc.h **** /**
 803:Drivers/STM32G0xx_HAL_Driver/Inc/stm32g0xx_ll_adc.h ****   * @}
 804:Drivers/STM32G0xx_HAL_Driver/Inc/stm32g0xx_ll_adc.h ****   */
 805:Drivers/STM32G0xx_HAL_Driver/Inc/stm32g0xx_ll_adc.h **** 
 806:Drivers/STM32G0xx_HAL_Driver/Inc/stm32g0xx_ll_adc.h **** /** @defgroup ADC_LL_EC_OVS_DISCONT_MODE  Oversampling - Discontinuous mode
 807:Drivers/STM32G0xx_HAL_Driver/Inc/stm32g0xx_ll_adc.h ****   * @{
 808:Drivers/STM32G0xx_HAL_Driver/Inc/stm32g0xx_ll_adc.h ****   */
 809:Drivers/STM32G0xx_HAL_Driver/Inc/stm32g0xx_ll_adc.h **** #define LL_ADC_OVS_REG_CONT                (0x00000000UL)         /*!< ADC oversampling discontinuo
 810:Drivers/STM32G0xx_HAL_Driver/Inc/stm32g0xx_ll_adc.h **** #define LL_ADC_OVS_REG_DISCONT             (ADC_CFGR2_TOVS)       /*!< ADC oversampling discontinuo
 811:Drivers/STM32G0xx_HAL_Driver/Inc/stm32g0xx_ll_adc.h **** /**
 812:Drivers/STM32G0xx_HAL_Driver/Inc/stm32g0xx_ll_adc.h ****   * @}
 813:Drivers/STM32G0xx_HAL_Driver/Inc/stm32g0xx_ll_adc.h ****   */
 814:Drivers/STM32G0xx_HAL_Driver/Inc/stm32g0xx_ll_adc.h **** 
 815:Drivers/STM32G0xx_HAL_Driver/Inc/stm32g0xx_ll_adc.h **** /** @defgroup ADC_LL_EC_OVS_RATIO  Oversampling - Ratio
 816:Drivers/STM32G0xx_HAL_Driver/Inc/stm32g0xx_ll_adc.h ****   * @{
 817:Drivers/STM32G0xx_HAL_Driver/Inc/stm32g0xx_ll_adc.h ****   */
 818:Drivers/STM32G0xx_HAL_Driver/Inc/stm32g0xx_ll_adc.h **** #define LL_ADC_OVS_RATIO_2                 (0x00000000UL)                                          
 819:Drivers/STM32G0xx_HAL_Driver/Inc/stm32g0xx_ll_adc.h **** #define LL_ADC_OVS_RATIO_4                 (                                      ADC_CFGR2_OVSR_0)
 820:Drivers/STM32G0xx_HAL_Driver/Inc/stm32g0xx_ll_adc.h **** #define LL_ADC_OVS_RATIO_8                 (                   ADC_CFGR2_OVSR_1                   )
 821:Drivers/STM32G0xx_HAL_Driver/Inc/stm32g0xx_ll_adc.h **** #define LL_ADC_OVS_RATIO_16                (                   ADC_CFGR2_OVSR_1 | ADC_CFGR2_OVSR_0)
 822:Drivers/STM32G0xx_HAL_Driver/Inc/stm32g0xx_ll_adc.h **** #define LL_ADC_OVS_RATIO_32                (ADC_CFGR2_OVSR_2                                      )
 823:Drivers/STM32G0xx_HAL_Driver/Inc/stm32g0xx_ll_adc.h **** #define LL_ADC_OVS_RATIO_64                (ADC_CFGR2_OVSR_2                    | ADC_CFGR2_OVSR_0)
 824:Drivers/STM32G0xx_HAL_Driver/Inc/stm32g0xx_ll_adc.h **** #define LL_ADC_OVS_RATIO_128               (ADC_CFGR2_OVSR_2 | ADC_CFGR2_OVSR_1                   )
 825:Drivers/STM32G0xx_HAL_Driver/Inc/stm32g0xx_ll_adc.h **** #define LL_ADC_OVS_RATIO_256               (ADC_CFGR2_OVSR_2 | ADC_CFGR2_OVSR_1 | ADC_CFGR2_OVSR_0)
 826:Drivers/STM32G0xx_HAL_Driver/Inc/stm32g0xx_ll_adc.h **** /**
 827:Drivers/STM32G0xx_HAL_Driver/Inc/stm32g0xx_ll_adc.h ****   * @}
 828:Drivers/STM32G0xx_HAL_Driver/Inc/stm32g0xx_ll_adc.h ****   */
 829:Drivers/STM32G0xx_HAL_Driver/Inc/stm32g0xx_ll_adc.h **** 
 830:Drivers/STM32G0xx_HAL_Driver/Inc/stm32g0xx_ll_adc.h **** /** @defgroup ADC_LL_EC_OVS_SHIFT  Oversampling - Data shift
 831:Drivers/STM32G0xx_HAL_Driver/Inc/stm32g0xx_ll_adc.h ****   * @{
 832:Drivers/STM32G0xx_HAL_Driver/Inc/stm32g0xx_ll_adc.h ****   */
 833:Drivers/STM32G0xx_HAL_Driver/Inc/stm32g0xx_ll_adc.h **** #define LL_ADC_OVS_SHIFT_NONE              (0x00000000UL)                                          
 834:Drivers/STM32G0xx_HAL_Driver/Inc/stm32g0xx_ll_adc.h **** #define LL_ADC_OVS_SHIFT_RIGHT_1           (                                                       
 835:Drivers/STM32G0xx_HAL_Driver/Inc/stm32g0xx_ll_adc.h **** #define LL_ADC_OVS_SHIFT_RIGHT_2           (                                      ADC_CFGR2_OVSS_1 
 836:Drivers/STM32G0xx_HAL_Driver/Inc/stm32g0xx_ll_adc.h **** #define LL_ADC_OVS_SHIFT_RIGHT_3           (                                      ADC_CFGR2_OVSS_1 
ARM GAS  /tmp/ccAd34n9.s 			page 19


 837:Drivers/STM32G0xx_HAL_Driver/Inc/stm32g0xx_ll_adc.h **** #define LL_ADC_OVS_SHIFT_RIGHT_4           (                   ADC_CFGR2_OVSS_2                    
 838:Drivers/STM32G0xx_HAL_Driver/Inc/stm32g0xx_ll_adc.h **** #define LL_ADC_OVS_SHIFT_RIGHT_5           (                   ADC_CFGR2_OVSS_2                    
 839:Drivers/STM32G0xx_HAL_Driver/Inc/stm32g0xx_ll_adc.h **** #define LL_ADC_OVS_SHIFT_RIGHT_6           (                   ADC_CFGR2_OVSS_2 | ADC_CFGR2_OVSS_1 
 840:Drivers/STM32G0xx_HAL_Driver/Inc/stm32g0xx_ll_adc.h **** #define LL_ADC_OVS_SHIFT_RIGHT_7           (                   ADC_CFGR2_OVSS_2 | ADC_CFGR2_OVSS_1 
 841:Drivers/STM32G0xx_HAL_Driver/Inc/stm32g0xx_ll_adc.h **** #define LL_ADC_OVS_SHIFT_RIGHT_8           (ADC_CFGR2_OVSS_3                                       
 842:Drivers/STM32G0xx_HAL_Driver/Inc/stm32g0xx_ll_adc.h **** /**
 843:Drivers/STM32G0xx_HAL_Driver/Inc/stm32g0xx_ll_adc.h ****   * @}
 844:Drivers/STM32G0xx_HAL_Driver/Inc/stm32g0xx_ll_adc.h ****   */
 845:Drivers/STM32G0xx_HAL_Driver/Inc/stm32g0xx_ll_adc.h **** 
 846:Drivers/STM32G0xx_HAL_Driver/Inc/stm32g0xx_ll_adc.h **** /** @defgroup ADC_LL_EC_HELPER_MACRO  Definitions of constants used by helper macro
 847:Drivers/STM32G0xx_HAL_Driver/Inc/stm32g0xx_ll_adc.h ****   * @{
 848:Drivers/STM32G0xx_HAL_Driver/Inc/stm32g0xx_ll_adc.h ****   */
 849:Drivers/STM32G0xx_HAL_Driver/Inc/stm32g0xx_ll_adc.h **** #define LL_ADC_TEMPERATURE_CALC_ERROR     ((int16_t)0x7FFF) /* Temperature calculation error using 
 850:Drivers/STM32G0xx_HAL_Driver/Inc/stm32g0xx_ll_adc.h **** /**
 851:Drivers/STM32G0xx_HAL_Driver/Inc/stm32g0xx_ll_adc.h ****   * @}
 852:Drivers/STM32G0xx_HAL_Driver/Inc/stm32g0xx_ll_adc.h ****   */
 853:Drivers/STM32G0xx_HAL_Driver/Inc/stm32g0xx_ll_adc.h **** 
 854:Drivers/STM32G0xx_HAL_Driver/Inc/stm32g0xx_ll_adc.h **** /** @defgroup ADC_LL_EC_HW_DELAYS  Definitions of ADC hardware constraints delays
 855:Drivers/STM32G0xx_HAL_Driver/Inc/stm32g0xx_ll_adc.h ****   * @note   Only ADC peripheral HW delays are defined in ADC LL driver driver,
 856:Drivers/STM32G0xx_HAL_Driver/Inc/stm32g0xx_ll_adc.h ****   *         not timeout values.
 857:Drivers/STM32G0xx_HAL_Driver/Inc/stm32g0xx_ll_adc.h ****   *         For details on delays values, refer to descriptions in source code
 858:Drivers/STM32G0xx_HAL_Driver/Inc/stm32g0xx_ll_adc.h ****   *         above each literal definition.
 859:Drivers/STM32G0xx_HAL_Driver/Inc/stm32g0xx_ll_adc.h ****   * @{
 860:Drivers/STM32G0xx_HAL_Driver/Inc/stm32g0xx_ll_adc.h ****   */
 861:Drivers/STM32G0xx_HAL_Driver/Inc/stm32g0xx_ll_adc.h **** 
 862:Drivers/STM32G0xx_HAL_Driver/Inc/stm32g0xx_ll_adc.h **** /* Note: Only ADC peripheral HW delays are defined in ADC LL driver driver,   */
 863:Drivers/STM32G0xx_HAL_Driver/Inc/stm32g0xx_ll_adc.h **** /*       not timeout values.                                                  */
 864:Drivers/STM32G0xx_HAL_Driver/Inc/stm32g0xx_ll_adc.h **** /*       Timeout values for ADC operations are dependent to device clock      */
 865:Drivers/STM32G0xx_HAL_Driver/Inc/stm32g0xx_ll_adc.h **** /*       configuration (system clock versus ADC clock),                       */
 866:Drivers/STM32G0xx_HAL_Driver/Inc/stm32g0xx_ll_adc.h **** /*       and therefore must be defined in user application.                   */
 867:Drivers/STM32G0xx_HAL_Driver/Inc/stm32g0xx_ll_adc.h **** /*       Indications for estimation of ADC timeout delays, for this           */
 868:Drivers/STM32G0xx_HAL_Driver/Inc/stm32g0xx_ll_adc.h **** /*       STM32 series:                                                        */
 869:Drivers/STM32G0xx_HAL_Driver/Inc/stm32g0xx_ll_adc.h **** /*       - ADC calibration time: maximum delay is 82/fADC.                    */
 870:Drivers/STM32G0xx_HAL_Driver/Inc/stm32g0xx_ll_adc.h **** /*         (refer to device datasheet, parameter "tCAL")                      */
 871:Drivers/STM32G0xx_HAL_Driver/Inc/stm32g0xx_ll_adc.h **** /*       - ADC enable time: maximum delay is 1 conversion cycle.              */
 872:Drivers/STM32G0xx_HAL_Driver/Inc/stm32g0xx_ll_adc.h **** /*         (refer to device datasheet, parameter "tSTAB")                     */
 873:Drivers/STM32G0xx_HAL_Driver/Inc/stm32g0xx_ll_adc.h **** /*       - ADC disable time: maximum delay should be a few ADC clock cycles   */
 874:Drivers/STM32G0xx_HAL_Driver/Inc/stm32g0xx_ll_adc.h **** /*       - ADC stop conversion time: maximum delay should be a few ADC clock  */
 875:Drivers/STM32G0xx_HAL_Driver/Inc/stm32g0xx_ll_adc.h **** /*         cycles                                                             */
 876:Drivers/STM32G0xx_HAL_Driver/Inc/stm32g0xx_ll_adc.h **** /*       - ADC conversion time: duration depending on ADC clock and ADC       */
 877:Drivers/STM32G0xx_HAL_Driver/Inc/stm32g0xx_ll_adc.h **** /*         configuration.                                                     */
 878:Drivers/STM32G0xx_HAL_Driver/Inc/stm32g0xx_ll_adc.h **** /*         (refer to device reference manual, section "Timing")               */
 879:Drivers/STM32G0xx_HAL_Driver/Inc/stm32g0xx_ll_adc.h **** 
 880:Drivers/STM32G0xx_HAL_Driver/Inc/stm32g0xx_ll_adc.h **** /* Delay for ADC stabilization time (ADC voltage regulator start-up time)     */
 881:Drivers/STM32G0xx_HAL_Driver/Inc/stm32g0xx_ll_adc.h **** /* Delay set to maximum value (refer to device datasheet,                     */
 882:Drivers/STM32G0xx_HAL_Driver/Inc/stm32g0xx_ll_adc.h **** /* parameter "tADCVREG_STUP").                                                */
 883:Drivers/STM32G0xx_HAL_Driver/Inc/stm32g0xx_ll_adc.h **** /* Unit: us                                                                   */
 884:Drivers/STM32G0xx_HAL_Driver/Inc/stm32g0xx_ll_adc.h **** #define LL_ADC_DELAY_INTERNAL_REGUL_STAB_US ( 20UL)  /*!< Delay for ADC stabilization time (ADC vol
 885:Drivers/STM32G0xx_HAL_Driver/Inc/stm32g0xx_ll_adc.h **** 
 886:Drivers/STM32G0xx_HAL_Driver/Inc/stm32g0xx_ll_adc.h **** /* Delay for internal voltage reference stabilization time.                   */
 887:Drivers/STM32G0xx_HAL_Driver/Inc/stm32g0xx_ll_adc.h **** /* Delay set to maximum value (refer to device datasheet,                     */
 888:Drivers/STM32G0xx_HAL_Driver/Inc/stm32g0xx_ll_adc.h **** /* parameter "tstart_vrefint").                                               */
 889:Drivers/STM32G0xx_HAL_Driver/Inc/stm32g0xx_ll_adc.h **** /* Unit: us                                                                   */
 890:Drivers/STM32G0xx_HAL_Driver/Inc/stm32g0xx_ll_adc.h **** #define LL_ADC_DELAY_VREFINT_STAB_US           ( 12UL)  /*!< Delay for internal voltage reference s
 891:Drivers/STM32G0xx_HAL_Driver/Inc/stm32g0xx_ll_adc.h **** 
 892:Drivers/STM32G0xx_HAL_Driver/Inc/stm32g0xx_ll_adc.h **** /* Delay for temperature sensor stabilization time.                           */
 893:Drivers/STM32G0xx_HAL_Driver/Inc/stm32g0xx_ll_adc.h **** /* Literal set to maximum value (refer to device datasheet,                   */
ARM GAS  /tmp/ccAd34n9.s 			page 20


 894:Drivers/STM32G0xx_HAL_Driver/Inc/stm32g0xx_ll_adc.h **** /* parameter "tSTART").                                                       */
 895:Drivers/STM32G0xx_HAL_Driver/Inc/stm32g0xx_ll_adc.h **** /* Unit: us                                                                   */
 896:Drivers/STM32G0xx_HAL_Driver/Inc/stm32g0xx_ll_adc.h **** #define LL_ADC_DELAY_TEMPSENSOR_STAB_US        (120UL)  /*!< Delay for temperature sensor stabiliza
 897:Drivers/STM32G0xx_HAL_Driver/Inc/stm32g0xx_ll_adc.h **** #define LL_ADC_DELAY_TEMPSENSOR_BUFFER_STAB_US ( 15UL)  /*!< Delay for temperature sensor buffer st
 898:Drivers/STM32G0xx_HAL_Driver/Inc/stm32g0xx_ll_adc.h **** 
 899:Drivers/STM32G0xx_HAL_Driver/Inc/stm32g0xx_ll_adc.h **** /* Delay required between ADC end of calibration and ADC enable.              */
 900:Drivers/STM32G0xx_HAL_Driver/Inc/stm32g0xx_ll_adc.h **** /* Note: On this STM32 series, a minimum number of ADC clock cycles           */
 901:Drivers/STM32G0xx_HAL_Driver/Inc/stm32g0xx_ll_adc.h **** /*       are required between ADC end of calibration and ADC enable.          */
 902:Drivers/STM32G0xx_HAL_Driver/Inc/stm32g0xx_ll_adc.h **** /*       Wait time can be computed in user application by waiting for the     */
 903:Drivers/STM32G0xx_HAL_Driver/Inc/stm32g0xx_ll_adc.h **** /*       equivalent number of CPU cycles, by taking into account              */
 904:Drivers/STM32G0xx_HAL_Driver/Inc/stm32g0xx_ll_adc.h **** /*       ratio of CPU clock versus ADC clock prescalers.                      */
 905:Drivers/STM32G0xx_HAL_Driver/Inc/stm32g0xx_ll_adc.h **** /* Unit: ADC clock cycles.                                                    */
 906:Drivers/STM32G0xx_HAL_Driver/Inc/stm32g0xx_ll_adc.h **** #define LL_ADC_DELAY_CALIB_ENABLE_ADC_CYCLES   (  2UL)  /*!< Delay required between ADC end of cali
 907:Drivers/STM32G0xx_HAL_Driver/Inc/stm32g0xx_ll_adc.h **** 
 908:Drivers/STM32G0xx_HAL_Driver/Inc/stm32g0xx_ll_adc.h **** /**
 909:Drivers/STM32G0xx_HAL_Driver/Inc/stm32g0xx_ll_adc.h ****   * @}
 910:Drivers/STM32G0xx_HAL_Driver/Inc/stm32g0xx_ll_adc.h ****   */
 911:Drivers/STM32G0xx_HAL_Driver/Inc/stm32g0xx_ll_adc.h **** 
 912:Drivers/STM32G0xx_HAL_Driver/Inc/stm32g0xx_ll_adc.h **** /**
 913:Drivers/STM32G0xx_HAL_Driver/Inc/stm32g0xx_ll_adc.h ****   * @}
 914:Drivers/STM32G0xx_HAL_Driver/Inc/stm32g0xx_ll_adc.h ****   */
 915:Drivers/STM32G0xx_HAL_Driver/Inc/stm32g0xx_ll_adc.h **** 
 916:Drivers/STM32G0xx_HAL_Driver/Inc/stm32g0xx_ll_adc.h **** 
 917:Drivers/STM32G0xx_HAL_Driver/Inc/stm32g0xx_ll_adc.h **** /* Exported macro ------------------------------------------------------------*/
 918:Drivers/STM32G0xx_HAL_Driver/Inc/stm32g0xx_ll_adc.h **** /** @defgroup ADC_LL_Exported_Macros ADC Exported Macros
 919:Drivers/STM32G0xx_HAL_Driver/Inc/stm32g0xx_ll_adc.h ****   * @{
 920:Drivers/STM32G0xx_HAL_Driver/Inc/stm32g0xx_ll_adc.h ****   */
 921:Drivers/STM32G0xx_HAL_Driver/Inc/stm32g0xx_ll_adc.h **** 
 922:Drivers/STM32G0xx_HAL_Driver/Inc/stm32g0xx_ll_adc.h **** /** @defgroup ADC_LL_EM_WRITE_READ Common write and read registers Macros
 923:Drivers/STM32G0xx_HAL_Driver/Inc/stm32g0xx_ll_adc.h ****   * @{
 924:Drivers/STM32G0xx_HAL_Driver/Inc/stm32g0xx_ll_adc.h ****   */
 925:Drivers/STM32G0xx_HAL_Driver/Inc/stm32g0xx_ll_adc.h **** 
 926:Drivers/STM32G0xx_HAL_Driver/Inc/stm32g0xx_ll_adc.h **** /**
 927:Drivers/STM32G0xx_HAL_Driver/Inc/stm32g0xx_ll_adc.h ****   * @brief  Write a value in ADC register
 928:Drivers/STM32G0xx_HAL_Driver/Inc/stm32g0xx_ll_adc.h ****   * @param  __INSTANCE__ ADC Instance
 929:Drivers/STM32G0xx_HAL_Driver/Inc/stm32g0xx_ll_adc.h ****   * @param  __REG__ Register to be written
 930:Drivers/STM32G0xx_HAL_Driver/Inc/stm32g0xx_ll_adc.h ****   * @param  __VALUE__ Value to be written in the register
 931:Drivers/STM32G0xx_HAL_Driver/Inc/stm32g0xx_ll_adc.h ****   * @retval None
 932:Drivers/STM32G0xx_HAL_Driver/Inc/stm32g0xx_ll_adc.h ****   */
 933:Drivers/STM32G0xx_HAL_Driver/Inc/stm32g0xx_ll_adc.h **** #define LL_ADC_WriteReg(__INSTANCE__, __REG__, __VALUE__) WRITE_REG(__INSTANCE__->__REG__, (__VALUE
 934:Drivers/STM32G0xx_HAL_Driver/Inc/stm32g0xx_ll_adc.h **** 
 935:Drivers/STM32G0xx_HAL_Driver/Inc/stm32g0xx_ll_adc.h **** /**
 936:Drivers/STM32G0xx_HAL_Driver/Inc/stm32g0xx_ll_adc.h ****   * @brief  Read a value in ADC register
 937:Drivers/STM32G0xx_HAL_Driver/Inc/stm32g0xx_ll_adc.h ****   * @param  __INSTANCE__ ADC Instance
 938:Drivers/STM32G0xx_HAL_Driver/Inc/stm32g0xx_ll_adc.h ****   * @param  __REG__ Register to be read
 939:Drivers/STM32G0xx_HAL_Driver/Inc/stm32g0xx_ll_adc.h ****   * @retval Register value
 940:Drivers/STM32G0xx_HAL_Driver/Inc/stm32g0xx_ll_adc.h ****   */
 941:Drivers/STM32G0xx_HAL_Driver/Inc/stm32g0xx_ll_adc.h **** #define LL_ADC_ReadReg(__INSTANCE__, __REG__) READ_REG(__INSTANCE__->__REG__)
 942:Drivers/STM32G0xx_HAL_Driver/Inc/stm32g0xx_ll_adc.h **** /**
 943:Drivers/STM32G0xx_HAL_Driver/Inc/stm32g0xx_ll_adc.h ****   * @}
 944:Drivers/STM32G0xx_HAL_Driver/Inc/stm32g0xx_ll_adc.h ****   */
 945:Drivers/STM32G0xx_HAL_Driver/Inc/stm32g0xx_ll_adc.h **** 
 946:Drivers/STM32G0xx_HAL_Driver/Inc/stm32g0xx_ll_adc.h **** /** @defgroup ADC_LL_EM_HELPER_MACRO ADC helper macro
 947:Drivers/STM32G0xx_HAL_Driver/Inc/stm32g0xx_ll_adc.h ****   * @{
 948:Drivers/STM32G0xx_HAL_Driver/Inc/stm32g0xx_ll_adc.h ****   */
 949:Drivers/STM32G0xx_HAL_Driver/Inc/stm32g0xx_ll_adc.h **** 
 950:Drivers/STM32G0xx_HAL_Driver/Inc/stm32g0xx_ll_adc.h **** /**
ARM GAS  /tmp/ccAd34n9.s 			page 21


 951:Drivers/STM32G0xx_HAL_Driver/Inc/stm32g0xx_ll_adc.h ****   * @brief  Helper macro to get ADC channel number in decimal format
 952:Drivers/STM32G0xx_HAL_Driver/Inc/stm32g0xx_ll_adc.h ****   *         from literals LL_ADC_CHANNEL_x.
 953:Drivers/STM32G0xx_HAL_Driver/Inc/stm32g0xx_ll_adc.h ****   * @note   Example:
 954:Drivers/STM32G0xx_HAL_Driver/Inc/stm32g0xx_ll_adc.h ****   *           __LL_ADC_CHANNEL_TO_DECIMAL_NB(LL_ADC_CHANNEL_4)
 955:Drivers/STM32G0xx_HAL_Driver/Inc/stm32g0xx_ll_adc.h ****   *           will return decimal number "4".
 956:Drivers/STM32G0xx_HAL_Driver/Inc/stm32g0xx_ll_adc.h ****   * @note   The input can be a value from functions where a channel
 957:Drivers/STM32G0xx_HAL_Driver/Inc/stm32g0xx_ll_adc.h ****   *         number is returned, either defined with number
 958:Drivers/STM32G0xx_HAL_Driver/Inc/stm32g0xx_ll_adc.h ****   *         or with bitfield (only one bit must be set).
 959:Drivers/STM32G0xx_HAL_Driver/Inc/stm32g0xx_ll_adc.h ****   * @param  __CHANNEL__ This parameter can be one of the following values:
 960:Drivers/STM32G0xx_HAL_Driver/Inc/stm32g0xx_ll_adc.h ****   *         @arg @ref LL_ADC_CHANNEL_0
 961:Drivers/STM32G0xx_HAL_Driver/Inc/stm32g0xx_ll_adc.h ****   *         @arg @ref LL_ADC_CHANNEL_1
 962:Drivers/STM32G0xx_HAL_Driver/Inc/stm32g0xx_ll_adc.h ****   *         @arg @ref LL_ADC_CHANNEL_2
 963:Drivers/STM32G0xx_HAL_Driver/Inc/stm32g0xx_ll_adc.h ****   *         @arg @ref LL_ADC_CHANNEL_3
 964:Drivers/STM32G0xx_HAL_Driver/Inc/stm32g0xx_ll_adc.h ****   *         @arg @ref LL_ADC_CHANNEL_4
 965:Drivers/STM32G0xx_HAL_Driver/Inc/stm32g0xx_ll_adc.h ****   *         @arg @ref LL_ADC_CHANNEL_5
 966:Drivers/STM32G0xx_HAL_Driver/Inc/stm32g0xx_ll_adc.h ****   *         @arg @ref LL_ADC_CHANNEL_6
 967:Drivers/STM32G0xx_HAL_Driver/Inc/stm32g0xx_ll_adc.h ****   *         @arg @ref LL_ADC_CHANNEL_7
 968:Drivers/STM32G0xx_HAL_Driver/Inc/stm32g0xx_ll_adc.h ****   *         @arg @ref LL_ADC_CHANNEL_8
 969:Drivers/STM32G0xx_HAL_Driver/Inc/stm32g0xx_ll_adc.h ****   *         @arg @ref LL_ADC_CHANNEL_9
 970:Drivers/STM32G0xx_HAL_Driver/Inc/stm32g0xx_ll_adc.h ****   *         @arg @ref LL_ADC_CHANNEL_10
 971:Drivers/STM32G0xx_HAL_Driver/Inc/stm32g0xx_ll_adc.h ****   *         @arg @ref LL_ADC_CHANNEL_11
 972:Drivers/STM32G0xx_HAL_Driver/Inc/stm32g0xx_ll_adc.h ****   *         @arg @ref LL_ADC_CHANNEL_12
 973:Drivers/STM32G0xx_HAL_Driver/Inc/stm32g0xx_ll_adc.h ****   *         @arg @ref LL_ADC_CHANNEL_13
 974:Drivers/STM32G0xx_HAL_Driver/Inc/stm32g0xx_ll_adc.h ****   *         @arg @ref LL_ADC_CHANNEL_14
 975:Drivers/STM32G0xx_HAL_Driver/Inc/stm32g0xx_ll_adc.h ****   *         @arg @ref LL_ADC_CHANNEL_15         (1)
 976:Drivers/STM32G0xx_HAL_Driver/Inc/stm32g0xx_ll_adc.h ****   *         @arg @ref LL_ADC_CHANNEL_16         (1)
 977:Drivers/STM32G0xx_HAL_Driver/Inc/stm32g0xx_ll_adc.h ****   *         @arg @ref LL_ADC_CHANNEL_17         (1)
 978:Drivers/STM32G0xx_HAL_Driver/Inc/stm32g0xx_ll_adc.h ****   *         @arg @ref LL_ADC_CHANNEL_18
 979:Drivers/STM32G0xx_HAL_Driver/Inc/stm32g0xx_ll_adc.h ****   *         @arg @ref LL_ADC_CHANNEL_VREFINT
 980:Drivers/STM32G0xx_HAL_Driver/Inc/stm32g0xx_ll_adc.h ****   *         @arg @ref LL_ADC_CHANNEL_TEMPSENSOR
 981:Drivers/STM32G0xx_HAL_Driver/Inc/stm32g0xx_ll_adc.h ****   *         @arg @ref LL_ADC_CHANNEL_VBAT
 982:Drivers/STM32G0xx_HAL_Driver/Inc/stm32g0xx_ll_adc.h ****   *
 983:Drivers/STM32G0xx_HAL_Driver/Inc/stm32g0xx_ll_adc.h ****   *         (1) On STM32G0, parameter can be set in ADC group sequencer
 984:Drivers/STM32G0xx_HAL_Driver/Inc/stm32g0xx_ll_adc.h ****   *             only if sequencer is set in mode "not fully configurable",
 985:Drivers/STM32G0xx_HAL_Driver/Inc/stm32g0xx_ll_adc.h ****   *             refer to function @ref LL_ADC_REG_SetSequencerConfigurable().
 986:Drivers/STM32G0xx_HAL_Driver/Inc/stm32g0xx_ll_adc.h ****   * @retval Value between Min_Data=0 and Max_Data=18
 987:Drivers/STM32G0xx_HAL_Driver/Inc/stm32g0xx_ll_adc.h ****   */
 988:Drivers/STM32G0xx_HAL_Driver/Inc/stm32g0xx_ll_adc.h **** #define __LL_ADC_CHANNEL_TO_DECIMAL_NB(__CHANNEL__)                                                
 989:Drivers/STM32G0xx_HAL_Driver/Inc/stm32g0xx_ll_adc.h ****   ((((__CHANNEL__) & ADC_CHANNEL_ID_BITFIELD_MASK) == 0UL) ?                                       
 990:Drivers/STM32G0xx_HAL_Driver/Inc/stm32g0xx_ll_adc.h ****    (                                                                                               
 991:Drivers/STM32G0xx_HAL_Driver/Inc/stm32g0xx_ll_adc.h ****        ((__CHANNEL__) & ADC_CHANNEL_ID_NUMBER_MASK) >> ADC_CHANNEL_ID_NUMBER_BITOFFSET_POS         
 992:Drivers/STM32G0xx_HAL_Driver/Inc/stm32g0xx_ll_adc.h ****    )                                                                                               
 993:Drivers/STM32G0xx_HAL_Driver/Inc/stm32g0xx_ll_adc.h ****    :                                                                                               
 994:Drivers/STM32G0xx_HAL_Driver/Inc/stm32g0xx_ll_adc.h ****    ((((__CHANNEL__) & ADC_CHANNEL_0_BITFIELD) == ADC_CHANNEL_0_BITFIELD) ? (0UL) :                 
 995:Drivers/STM32G0xx_HAL_Driver/Inc/stm32g0xx_ll_adc.h ****     ((((__CHANNEL__) & ADC_CHANNEL_1_BITFIELD) == ADC_CHANNEL_1_BITFIELD) ? (1UL) :                
 996:Drivers/STM32G0xx_HAL_Driver/Inc/stm32g0xx_ll_adc.h ****      ((((__CHANNEL__) & ADC_CHANNEL_2_BITFIELD) == ADC_CHANNEL_2_BITFIELD) ? (2UL) :               
 997:Drivers/STM32G0xx_HAL_Driver/Inc/stm32g0xx_ll_adc.h ****       ((((__CHANNEL__) & ADC_CHANNEL_3_BITFIELD) == ADC_CHANNEL_3_BITFIELD) ? (3UL) :              
 998:Drivers/STM32G0xx_HAL_Driver/Inc/stm32g0xx_ll_adc.h ****        ((((__CHANNEL__) & ADC_CHANNEL_4_BITFIELD) == ADC_CHANNEL_4_BITFIELD) ? (4UL) :             
 999:Drivers/STM32G0xx_HAL_Driver/Inc/stm32g0xx_ll_adc.h ****         ((((__CHANNEL__) & ADC_CHANNEL_5_BITFIELD) == ADC_CHANNEL_5_BITFIELD) ? (5UL) :            
1000:Drivers/STM32G0xx_HAL_Driver/Inc/stm32g0xx_ll_adc.h ****          ((((__CHANNEL__) & ADC_CHANNEL_6_BITFIELD) == ADC_CHANNEL_6_BITFIELD) ? (6UL) :           
1001:Drivers/STM32G0xx_HAL_Driver/Inc/stm32g0xx_ll_adc.h ****           ((((__CHANNEL__) & ADC_CHANNEL_7_BITFIELD) == ADC_CHANNEL_7_BITFIELD) ? (7UL) :          
1002:Drivers/STM32G0xx_HAL_Driver/Inc/stm32g0xx_ll_adc.h ****            ((((__CHANNEL__) & ADC_CHANNEL_8_BITFIELD) == ADC_CHANNEL_8_BITFIELD) ? (8UL) :         
1003:Drivers/STM32G0xx_HAL_Driver/Inc/stm32g0xx_ll_adc.h ****             ((((__CHANNEL__) & ADC_CHANNEL_9_BITFIELD) == ADC_CHANNEL_9_BITFIELD) ? (9UL) :        
1004:Drivers/STM32G0xx_HAL_Driver/Inc/stm32g0xx_ll_adc.h ****              ((((__CHANNEL__) & ADC_CHANNEL_10_BITFIELD) == ADC_CHANNEL_10_BITFIELD) ? (10UL) :    
1005:Drivers/STM32G0xx_HAL_Driver/Inc/stm32g0xx_ll_adc.h ****               ((((__CHANNEL__) & ADC_CHANNEL_11_BITFIELD) == ADC_CHANNEL_11_BITFIELD) ? (11UL) :   
1006:Drivers/STM32G0xx_HAL_Driver/Inc/stm32g0xx_ll_adc.h ****                ((((__CHANNEL__) & ADC_CHANNEL_12_BITFIELD) == ADC_CHANNEL_12_BITFIELD) ? (12UL) :  
1007:Drivers/STM32G0xx_HAL_Driver/Inc/stm32g0xx_ll_adc.h ****                 ((((__CHANNEL__) & ADC_CHANNEL_13_BITFIELD) == ADC_CHANNEL_13_BITFIELD) ? (13UL) : 
ARM GAS  /tmp/ccAd34n9.s 			page 22


1008:Drivers/STM32G0xx_HAL_Driver/Inc/stm32g0xx_ll_adc.h ****                  ((((__CHANNEL__) & ADC_CHANNEL_14_BITFIELD) == ADC_CHANNEL_14_BITFIELD) ? (14UL) :
1009:Drivers/STM32G0xx_HAL_Driver/Inc/stm32g0xx_ll_adc.h ****                   ((((__CHANNEL__) & ADC_CHANNEL_15_BITFIELD) == ADC_CHANNEL_15_BITFIELD) ? (15UL) 
1010:Drivers/STM32G0xx_HAL_Driver/Inc/stm32g0xx_ll_adc.h ****                    ((((__CHANNEL__) & ADC_CHANNEL_16_BITFIELD) == ADC_CHANNEL_16_BITFIELD) ? (16UL)
1011:Drivers/STM32G0xx_HAL_Driver/Inc/stm32g0xx_ll_adc.h ****                     ((((__CHANNEL__) & ADC_CHANNEL_17_BITFIELD) == ADC_CHANNEL_17_BITFIELD) ? (17UL
1012:Drivers/STM32G0xx_HAL_Driver/Inc/stm32g0xx_ll_adc.h ****                      ((((__CHANNEL__) & ADC_CHANNEL_18_BITFIELD) == ADC_CHANNEL_18_BITFIELD) ? (18U
1013:Drivers/STM32G0xx_HAL_Driver/Inc/stm32g0xx_ll_adc.h ****                       (0UL)))))))))))))))))))))
1014:Drivers/STM32G0xx_HAL_Driver/Inc/stm32g0xx_ll_adc.h **** 
1015:Drivers/STM32G0xx_HAL_Driver/Inc/stm32g0xx_ll_adc.h **** /**
1016:Drivers/STM32G0xx_HAL_Driver/Inc/stm32g0xx_ll_adc.h ****   * @brief  Helper macro to get ADC channel in literal format LL_ADC_CHANNEL_x
1017:Drivers/STM32G0xx_HAL_Driver/Inc/stm32g0xx_ll_adc.h ****   *         from number in decimal format.
1018:Drivers/STM32G0xx_HAL_Driver/Inc/stm32g0xx_ll_adc.h ****   * @note   Example:
1019:Drivers/STM32G0xx_HAL_Driver/Inc/stm32g0xx_ll_adc.h ****   *           __LL_ADC_DECIMAL_NB_TO_CHANNEL(4)
1020:Drivers/STM32G0xx_HAL_Driver/Inc/stm32g0xx_ll_adc.h ****   *           will return a data equivalent to "LL_ADC_CHANNEL_4".
1021:Drivers/STM32G0xx_HAL_Driver/Inc/stm32g0xx_ll_adc.h ****   * @param  __DECIMAL_NB__ Value between Min_Data=0 and Max_Data=18
1022:Drivers/STM32G0xx_HAL_Driver/Inc/stm32g0xx_ll_adc.h ****   * @retval Returned value can be one of the following values:
1023:Drivers/STM32G0xx_HAL_Driver/Inc/stm32g0xx_ll_adc.h ****   *         @arg @ref LL_ADC_CHANNEL_0
1024:Drivers/STM32G0xx_HAL_Driver/Inc/stm32g0xx_ll_adc.h ****   *         @arg @ref LL_ADC_CHANNEL_1
1025:Drivers/STM32G0xx_HAL_Driver/Inc/stm32g0xx_ll_adc.h ****   *         @arg @ref LL_ADC_CHANNEL_2
1026:Drivers/STM32G0xx_HAL_Driver/Inc/stm32g0xx_ll_adc.h ****   *         @arg @ref LL_ADC_CHANNEL_3
1027:Drivers/STM32G0xx_HAL_Driver/Inc/stm32g0xx_ll_adc.h ****   *         @arg @ref LL_ADC_CHANNEL_4
1028:Drivers/STM32G0xx_HAL_Driver/Inc/stm32g0xx_ll_adc.h ****   *         @arg @ref LL_ADC_CHANNEL_5
1029:Drivers/STM32G0xx_HAL_Driver/Inc/stm32g0xx_ll_adc.h ****   *         @arg @ref LL_ADC_CHANNEL_6
1030:Drivers/STM32G0xx_HAL_Driver/Inc/stm32g0xx_ll_adc.h ****   *         @arg @ref LL_ADC_CHANNEL_7
1031:Drivers/STM32G0xx_HAL_Driver/Inc/stm32g0xx_ll_adc.h ****   *         @arg @ref LL_ADC_CHANNEL_8
1032:Drivers/STM32G0xx_HAL_Driver/Inc/stm32g0xx_ll_adc.h ****   *         @arg @ref LL_ADC_CHANNEL_9
1033:Drivers/STM32G0xx_HAL_Driver/Inc/stm32g0xx_ll_adc.h ****   *         @arg @ref LL_ADC_CHANNEL_10
1034:Drivers/STM32G0xx_HAL_Driver/Inc/stm32g0xx_ll_adc.h ****   *         @arg @ref LL_ADC_CHANNEL_11
1035:Drivers/STM32G0xx_HAL_Driver/Inc/stm32g0xx_ll_adc.h ****   *         @arg @ref LL_ADC_CHANNEL_12
1036:Drivers/STM32G0xx_HAL_Driver/Inc/stm32g0xx_ll_adc.h ****   *         @arg @ref LL_ADC_CHANNEL_13
1037:Drivers/STM32G0xx_HAL_Driver/Inc/stm32g0xx_ll_adc.h ****   *         @arg @ref LL_ADC_CHANNEL_14
1038:Drivers/STM32G0xx_HAL_Driver/Inc/stm32g0xx_ll_adc.h ****   *         @arg @ref LL_ADC_CHANNEL_15         (1)
1039:Drivers/STM32G0xx_HAL_Driver/Inc/stm32g0xx_ll_adc.h ****   *         @arg @ref LL_ADC_CHANNEL_16         (1)
1040:Drivers/STM32G0xx_HAL_Driver/Inc/stm32g0xx_ll_adc.h ****   *         @arg @ref LL_ADC_CHANNEL_17         (1)
1041:Drivers/STM32G0xx_HAL_Driver/Inc/stm32g0xx_ll_adc.h ****   *         @arg @ref LL_ADC_CHANNEL_18
1042:Drivers/STM32G0xx_HAL_Driver/Inc/stm32g0xx_ll_adc.h ****   *         @arg @ref LL_ADC_CHANNEL_VREFINT    (2)
1043:Drivers/STM32G0xx_HAL_Driver/Inc/stm32g0xx_ll_adc.h ****   *         @arg @ref LL_ADC_CHANNEL_TEMPSENSOR (2)
1044:Drivers/STM32G0xx_HAL_Driver/Inc/stm32g0xx_ll_adc.h ****   *         @arg @ref LL_ADC_CHANNEL_VBAT       (2)
1045:Drivers/STM32G0xx_HAL_Driver/Inc/stm32g0xx_ll_adc.h ****   *
1046:Drivers/STM32G0xx_HAL_Driver/Inc/stm32g0xx_ll_adc.h ****   *         (1) On STM32G0, parameter can be set in ADC group sequencer
1047:Drivers/STM32G0xx_HAL_Driver/Inc/stm32g0xx_ll_adc.h ****   *             only if sequencer is set in mode "not fully configurable",
1048:Drivers/STM32G0xx_HAL_Driver/Inc/stm32g0xx_ll_adc.h ****   *             refer to function @ref LL_ADC_REG_SetSequencerConfigurable().\n
1049:Drivers/STM32G0xx_HAL_Driver/Inc/stm32g0xx_ll_adc.h ****   *         (2) For ADC channel read back from ADC register,
1050:Drivers/STM32G0xx_HAL_Driver/Inc/stm32g0xx_ll_adc.h ****   *             comparison with internal channel parameter to be done
1051:Drivers/STM32G0xx_HAL_Driver/Inc/stm32g0xx_ll_adc.h ****   *             using helper macro @ref __LL_ADC_CHANNEL_INTERNAL_TO_EXTERNAL().
1052:Drivers/STM32G0xx_HAL_Driver/Inc/stm32g0xx_ll_adc.h ****   */
1053:Drivers/STM32G0xx_HAL_Driver/Inc/stm32g0xx_ll_adc.h **** #define __LL_ADC_DECIMAL_NB_TO_CHANNEL(__DECIMAL_NB__)                         \
1054:Drivers/STM32G0xx_HAL_Driver/Inc/stm32g0xx_ll_adc.h ****   (((__DECIMAL_NB__) << ADC_CHANNEL_ID_NUMBER_BITOFFSET_POS) |                 \
1055:Drivers/STM32G0xx_HAL_Driver/Inc/stm32g0xx_ll_adc.h ****    (ADC_CHSELR_CHSEL0 << (__DECIMAL_NB__)))
1056:Drivers/STM32G0xx_HAL_Driver/Inc/stm32g0xx_ll_adc.h **** 
1057:Drivers/STM32G0xx_HAL_Driver/Inc/stm32g0xx_ll_adc.h **** /**
1058:Drivers/STM32G0xx_HAL_Driver/Inc/stm32g0xx_ll_adc.h ****   * @brief  Helper macro to determine whether the selected channel
1059:Drivers/STM32G0xx_HAL_Driver/Inc/stm32g0xx_ll_adc.h ****   *         corresponds to literal definitions of driver.
1060:Drivers/STM32G0xx_HAL_Driver/Inc/stm32g0xx_ll_adc.h ****   * @note   The different literal definitions of ADC channels are:
1061:Drivers/STM32G0xx_HAL_Driver/Inc/stm32g0xx_ll_adc.h ****   *         - ADC internal channel:
1062:Drivers/STM32G0xx_HAL_Driver/Inc/stm32g0xx_ll_adc.h ****   *           LL_ADC_CHANNEL_VREFINT, LL_ADC_CHANNEL_TEMPSENSOR, ...
1063:Drivers/STM32G0xx_HAL_Driver/Inc/stm32g0xx_ll_adc.h ****   *         - ADC external channel (channel connected to a GPIO pin):
1064:Drivers/STM32G0xx_HAL_Driver/Inc/stm32g0xx_ll_adc.h ****   *           LL_ADC_CHANNEL_1, LL_ADC_CHANNEL_2, ...
ARM GAS  /tmp/ccAd34n9.s 			page 23


1065:Drivers/STM32G0xx_HAL_Driver/Inc/stm32g0xx_ll_adc.h ****   * @note   The channel parameter must be a value defined from literal
1066:Drivers/STM32G0xx_HAL_Driver/Inc/stm32g0xx_ll_adc.h ****   *         definition of a ADC internal channel (LL_ADC_CHANNEL_VREFINT,
1067:Drivers/STM32G0xx_HAL_Driver/Inc/stm32g0xx_ll_adc.h ****   *         LL_ADC_CHANNEL_TEMPSENSOR, ...),
1068:Drivers/STM32G0xx_HAL_Driver/Inc/stm32g0xx_ll_adc.h ****   *         ADC external channel (LL_ADC_CHANNEL_1, LL_ADC_CHANNEL_2, ...),
1069:Drivers/STM32G0xx_HAL_Driver/Inc/stm32g0xx_ll_adc.h ****   *         must not be a value from functions where a channel number is
1070:Drivers/STM32G0xx_HAL_Driver/Inc/stm32g0xx_ll_adc.h ****   *         returned from ADC registers,
1071:Drivers/STM32G0xx_HAL_Driver/Inc/stm32g0xx_ll_adc.h ****   *         because internal and external channels share the same channel
1072:Drivers/STM32G0xx_HAL_Driver/Inc/stm32g0xx_ll_adc.h ****   *         number in ADC registers. The differentiation is made only with
1073:Drivers/STM32G0xx_HAL_Driver/Inc/stm32g0xx_ll_adc.h ****   *         parameters definitions of driver.
1074:Drivers/STM32G0xx_HAL_Driver/Inc/stm32g0xx_ll_adc.h ****   * @param  __CHANNEL__ This parameter can be one of the following values:
1075:Drivers/STM32G0xx_HAL_Driver/Inc/stm32g0xx_ll_adc.h ****   *         @arg @ref LL_ADC_CHANNEL_0
1076:Drivers/STM32G0xx_HAL_Driver/Inc/stm32g0xx_ll_adc.h ****   *         @arg @ref LL_ADC_CHANNEL_1
1077:Drivers/STM32G0xx_HAL_Driver/Inc/stm32g0xx_ll_adc.h ****   *         @arg @ref LL_ADC_CHANNEL_2
1078:Drivers/STM32G0xx_HAL_Driver/Inc/stm32g0xx_ll_adc.h ****   *         @arg @ref LL_ADC_CHANNEL_3
1079:Drivers/STM32G0xx_HAL_Driver/Inc/stm32g0xx_ll_adc.h ****   *         @arg @ref LL_ADC_CHANNEL_4
1080:Drivers/STM32G0xx_HAL_Driver/Inc/stm32g0xx_ll_adc.h ****   *         @arg @ref LL_ADC_CHANNEL_5
1081:Drivers/STM32G0xx_HAL_Driver/Inc/stm32g0xx_ll_adc.h ****   *         @arg @ref LL_ADC_CHANNEL_6
1082:Drivers/STM32G0xx_HAL_Driver/Inc/stm32g0xx_ll_adc.h ****   *         @arg @ref LL_ADC_CHANNEL_7
1083:Drivers/STM32G0xx_HAL_Driver/Inc/stm32g0xx_ll_adc.h ****   *         @arg @ref LL_ADC_CHANNEL_8
1084:Drivers/STM32G0xx_HAL_Driver/Inc/stm32g0xx_ll_adc.h ****   *         @arg @ref LL_ADC_CHANNEL_9
1085:Drivers/STM32G0xx_HAL_Driver/Inc/stm32g0xx_ll_adc.h ****   *         @arg @ref LL_ADC_CHANNEL_10
1086:Drivers/STM32G0xx_HAL_Driver/Inc/stm32g0xx_ll_adc.h ****   *         @arg @ref LL_ADC_CHANNEL_11
1087:Drivers/STM32G0xx_HAL_Driver/Inc/stm32g0xx_ll_adc.h ****   *         @arg @ref LL_ADC_CHANNEL_12
1088:Drivers/STM32G0xx_HAL_Driver/Inc/stm32g0xx_ll_adc.h ****   *         @arg @ref LL_ADC_CHANNEL_13
1089:Drivers/STM32G0xx_HAL_Driver/Inc/stm32g0xx_ll_adc.h ****   *         @arg @ref LL_ADC_CHANNEL_14
1090:Drivers/STM32G0xx_HAL_Driver/Inc/stm32g0xx_ll_adc.h ****   *         @arg @ref LL_ADC_CHANNEL_15         (1)
1091:Drivers/STM32G0xx_HAL_Driver/Inc/stm32g0xx_ll_adc.h ****   *         @arg @ref LL_ADC_CHANNEL_16         (1)
1092:Drivers/STM32G0xx_HAL_Driver/Inc/stm32g0xx_ll_adc.h ****   *         @arg @ref LL_ADC_CHANNEL_17         (1)
1093:Drivers/STM32G0xx_HAL_Driver/Inc/stm32g0xx_ll_adc.h ****   *         @arg @ref LL_ADC_CHANNEL_18
1094:Drivers/STM32G0xx_HAL_Driver/Inc/stm32g0xx_ll_adc.h ****   *         @arg @ref LL_ADC_CHANNEL_VREFINT
1095:Drivers/STM32G0xx_HAL_Driver/Inc/stm32g0xx_ll_adc.h ****   *         @arg @ref LL_ADC_CHANNEL_TEMPSENSOR
1096:Drivers/STM32G0xx_HAL_Driver/Inc/stm32g0xx_ll_adc.h ****   *         @arg @ref LL_ADC_CHANNEL_VBAT
1097:Drivers/STM32G0xx_HAL_Driver/Inc/stm32g0xx_ll_adc.h ****   *
1098:Drivers/STM32G0xx_HAL_Driver/Inc/stm32g0xx_ll_adc.h ****   *         (1) On STM32G0, parameter can be set in ADC group sequencer
1099:Drivers/STM32G0xx_HAL_Driver/Inc/stm32g0xx_ll_adc.h ****   *             only if sequencer is set in mode "not fully configurable",
1100:Drivers/STM32G0xx_HAL_Driver/Inc/stm32g0xx_ll_adc.h ****   *             refer to function @ref LL_ADC_REG_SetSequencerConfigurable().
1101:Drivers/STM32G0xx_HAL_Driver/Inc/stm32g0xx_ll_adc.h ****   * @retval Value "0" if the channel corresponds to a parameter definition of a ADC external channe
1102:Drivers/STM32G0xx_HAL_Driver/Inc/stm32g0xx_ll_adc.h ****   *         Value "1" if the channel corresponds to a parameter definition of a ADC internal channe
1103:Drivers/STM32G0xx_HAL_Driver/Inc/stm32g0xx_ll_adc.h ****   */
1104:Drivers/STM32G0xx_HAL_Driver/Inc/stm32g0xx_ll_adc.h **** #define __LL_ADC_IS_CHANNEL_INTERNAL(__CHANNEL__)                              \
1105:Drivers/STM32G0xx_HAL_Driver/Inc/stm32g0xx_ll_adc.h ****   (((__CHANNEL__) & ADC_CHANNEL_ID_INTERNAL_CH_MASK) != 0UL)
1106:Drivers/STM32G0xx_HAL_Driver/Inc/stm32g0xx_ll_adc.h **** 
1107:Drivers/STM32G0xx_HAL_Driver/Inc/stm32g0xx_ll_adc.h **** /**
1108:Drivers/STM32G0xx_HAL_Driver/Inc/stm32g0xx_ll_adc.h ****   * @brief  Helper macro to convert a channel defined from parameter
1109:Drivers/STM32G0xx_HAL_Driver/Inc/stm32g0xx_ll_adc.h ****   *         definition of a ADC internal channel (LL_ADC_CHANNEL_VREFINT,
1110:Drivers/STM32G0xx_HAL_Driver/Inc/stm32g0xx_ll_adc.h ****   *         LL_ADC_CHANNEL_TEMPSENSOR, ...),
1111:Drivers/STM32G0xx_HAL_Driver/Inc/stm32g0xx_ll_adc.h ****   *         to its equivalent parameter definition of a ADC external channel
1112:Drivers/STM32G0xx_HAL_Driver/Inc/stm32g0xx_ll_adc.h ****   *         (LL_ADC_CHANNEL_1, LL_ADC_CHANNEL_2, ...).
1113:Drivers/STM32G0xx_HAL_Driver/Inc/stm32g0xx_ll_adc.h ****   * @note   The channel parameter can be, additionally to a value
1114:Drivers/STM32G0xx_HAL_Driver/Inc/stm32g0xx_ll_adc.h ****   *         defined from parameter definition of a ADC internal channel
1115:Drivers/STM32G0xx_HAL_Driver/Inc/stm32g0xx_ll_adc.h ****   *         (LL_ADC_CHANNEL_VREFINT, LL_ADC_CHANNEL_TEMPSENSOR, ...),
1116:Drivers/STM32G0xx_HAL_Driver/Inc/stm32g0xx_ll_adc.h ****   *         a value defined from parameter definition of
1117:Drivers/STM32G0xx_HAL_Driver/Inc/stm32g0xx_ll_adc.h ****   *         ADC external channel (LL_ADC_CHANNEL_1, LL_ADC_CHANNEL_2, ...)
1118:Drivers/STM32G0xx_HAL_Driver/Inc/stm32g0xx_ll_adc.h ****   *         or a value from functions where a channel number is returned
1119:Drivers/STM32G0xx_HAL_Driver/Inc/stm32g0xx_ll_adc.h ****   *         from ADC registers.
1120:Drivers/STM32G0xx_HAL_Driver/Inc/stm32g0xx_ll_adc.h ****   * @param  __CHANNEL__ This parameter can be one of the following values:
1121:Drivers/STM32G0xx_HAL_Driver/Inc/stm32g0xx_ll_adc.h ****   *         @arg @ref LL_ADC_CHANNEL_0
ARM GAS  /tmp/ccAd34n9.s 			page 24


1122:Drivers/STM32G0xx_HAL_Driver/Inc/stm32g0xx_ll_adc.h ****   *         @arg @ref LL_ADC_CHANNEL_1
1123:Drivers/STM32G0xx_HAL_Driver/Inc/stm32g0xx_ll_adc.h ****   *         @arg @ref LL_ADC_CHANNEL_2
1124:Drivers/STM32G0xx_HAL_Driver/Inc/stm32g0xx_ll_adc.h ****   *         @arg @ref LL_ADC_CHANNEL_3
1125:Drivers/STM32G0xx_HAL_Driver/Inc/stm32g0xx_ll_adc.h ****   *         @arg @ref LL_ADC_CHANNEL_4
1126:Drivers/STM32G0xx_HAL_Driver/Inc/stm32g0xx_ll_adc.h ****   *         @arg @ref LL_ADC_CHANNEL_5
1127:Drivers/STM32G0xx_HAL_Driver/Inc/stm32g0xx_ll_adc.h ****   *         @arg @ref LL_ADC_CHANNEL_6
1128:Drivers/STM32G0xx_HAL_Driver/Inc/stm32g0xx_ll_adc.h ****   *         @arg @ref LL_ADC_CHANNEL_7
1129:Drivers/STM32G0xx_HAL_Driver/Inc/stm32g0xx_ll_adc.h ****   *         @arg @ref LL_ADC_CHANNEL_8
1130:Drivers/STM32G0xx_HAL_Driver/Inc/stm32g0xx_ll_adc.h ****   *         @arg @ref LL_ADC_CHANNEL_9
1131:Drivers/STM32G0xx_HAL_Driver/Inc/stm32g0xx_ll_adc.h ****   *         @arg @ref LL_ADC_CHANNEL_10
1132:Drivers/STM32G0xx_HAL_Driver/Inc/stm32g0xx_ll_adc.h ****   *         @arg @ref LL_ADC_CHANNEL_11
1133:Drivers/STM32G0xx_HAL_Driver/Inc/stm32g0xx_ll_adc.h ****   *         @arg @ref LL_ADC_CHANNEL_12
1134:Drivers/STM32G0xx_HAL_Driver/Inc/stm32g0xx_ll_adc.h ****   *         @arg @ref LL_ADC_CHANNEL_13
1135:Drivers/STM32G0xx_HAL_Driver/Inc/stm32g0xx_ll_adc.h ****   *         @arg @ref LL_ADC_CHANNEL_14
1136:Drivers/STM32G0xx_HAL_Driver/Inc/stm32g0xx_ll_adc.h ****   *         @arg @ref LL_ADC_CHANNEL_15         (1)
1137:Drivers/STM32G0xx_HAL_Driver/Inc/stm32g0xx_ll_adc.h ****   *         @arg @ref LL_ADC_CHANNEL_16         (1)
1138:Drivers/STM32G0xx_HAL_Driver/Inc/stm32g0xx_ll_adc.h ****   *         @arg @ref LL_ADC_CHANNEL_17         (1)
1139:Drivers/STM32G0xx_HAL_Driver/Inc/stm32g0xx_ll_adc.h ****   *         @arg @ref LL_ADC_CHANNEL_18
1140:Drivers/STM32G0xx_HAL_Driver/Inc/stm32g0xx_ll_adc.h ****   *         @arg @ref LL_ADC_CHANNEL_VREFINT
1141:Drivers/STM32G0xx_HAL_Driver/Inc/stm32g0xx_ll_adc.h ****   *         @arg @ref LL_ADC_CHANNEL_TEMPSENSOR
1142:Drivers/STM32G0xx_HAL_Driver/Inc/stm32g0xx_ll_adc.h ****   *         @arg @ref LL_ADC_CHANNEL_VBAT
1143:Drivers/STM32G0xx_HAL_Driver/Inc/stm32g0xx_ll_adc.h ****   *
1144:Drivers/STM32G0xx_HAL_Driver/Inc/stm32g0xx_ll_adc.h ****   *         (1) On STM32G0, parameter can be set in ADC group sequencer
1145:Drivers/STM32G0xx_HAL_Driver/Inc/stm32g0xx_ll_adc.h ****   *             only if sequencer is set in mode "not fully configurable",
1146:Drivers/STM32G0xx_HAL_Driver/Inc/stm32g0xx_ll_adc.h ****   *             refer to function @ref LL_ADC_REG_SetSequencerConfigurable().
1147:Drivers/STM32G0xx_HAL_Driver/Inc/stm32g0xx_ll_adc.h ****   * @retval Returned value can be one of the following values:
1148:Drivers/STM32G0xx_HAL_Driver/Inc/stm32g0xx_ll_adc.h ****   *         @arg @ref LL_ADC_CHANNEL_0
1149:Drivers/STM32G0xx_HAL_Driver/Inc/stm32g0xx_ll_adc.h ****   *         @arg @ref LL_ADC_CHANNEL_1
1150:Drivers/STM32G0xx_HAL_Driver/Inc/stm32g0xx_ll_adc.h ****   *         @arg @ref LL_ADC_CHANNEL_2
1151:Drivers/STM32G0xx_HAL_Driver/Inc/stm32g0xx_ll_adc.h ****   *         @arg @ref LL_ADC_CHANNEL_3
1152:Drivers/STM32G0xx_HAL_Driver/Inc/stm32g0xx_ll_adc.h ****   *         @arg @ref LL_ADC_CHANNEL_4
1153:Drivers/STM32G0xx_HAL_Driver/Inc/stm32g0xx_ll_adc.h ****   *         @arg @ref LL_ADC_CHANNEL_5
1154:Drivers/STM32G0xx_HAL_Driver/Inc/stm32g0xx_ll_adc.h ****   *         @arg @ref LL_ADC_CHANNEL_6
1155:Drivers/STM32G0xx_HAL_Driver/Inc/stm32g0xx_ll_adc.h ****   *         @arg @ref LL_ADC_CHANNEL_7
1156:Drivers/STM32G0xx_HAL_Driver/Inc/stm32g0xx_ll_adc.h ****   *         @arg @ref LL_ADC_CHANNEL_8
1157:Drivers/STM32G0xx_HAL_Driver/Inc/stm32g0xx_ll_adc.h ****   *         @arg @ref LL_ADC_CHANNEL_9
1158:Drivers/STM32G0xx_HAL_Driver/Inc/stm32g0xx_ll_adc.h ****   *         @arg @ref LL_ADC_CHANNEL_10
1159:Drivers/STM32G0xx_HAL_Driver/Inc/stm32g0xx_ll_adc.h ****   *         @arg @ref LL_ADC_CHANNEL_11
1160:Drivers/STM32G0xx_HAL_Driver/Inc/stm32g0xx_ll_adc.h ****   *         @arg @ref LL_ADC_CHANNEL_12
1161:Drivers/STM32G0xx_HAL_Driver/Inc/stm32g0xx_ll_adc.h ****   *         @arg @ref LL_ADC_CHANNEL_13
1162:Drivers/STM32G0xx_HAL_Driver/Inc/stm32g0xx_ll_adc.h ****   *         @arg @ref LL_ADC_CHANNEL_14
1163:Drivers/STM32G0xx_HAL_Driver/Inc/stm32g0xx_ll_adc.h ****   *         @arg @ref LL_ADC_CHANNEL_15
1164:Drivers/STM32G0xx_HAL_Driver/Inc/stm32g0xx_ll_adc.h ****   *         @arg @ref LL_ADC_CHANNEL_16
1165:Drivers/STM32G0xx_HAL_Driver/Inc/stm32g0xx_ll_adc.h ****   *         @arg @ref LL_ADC_CHANNEL_17
1166:Drivers/STM32G0xx_HAL_Driver/Inc/stm32g0xx_ll_adc.h ****   *         @arg @ref LL_ADC_CHANNEL_18
1167:Drivers/STM32G0xx_HAL_Driver/Inc/stm32g0xx_ll_adc.h ****   */
1168:Drivers/STM32G0xx_HAL_Driver/Inc/stm32g0xx_ll_adc.h **** #define __LL_ADC_CHANNEL_INTERNAL_TO_EXTERNAL(__CHANNEL__)                     \
1169:Drivers/STM32G0xx_HAL_Driver/Inc/stm32g0xx_ll_adc.h ****   ((__CHANNEL__) & ~ADC_CHANNEL_ID_INTERNAL_CH_MASK)
1170:Drivers/STM32G0xx_HAL_Driver/Inc/stm32g0xx_ll_adc.h **** 
1171:Drivers/STM32G0xx_HAL_Driver/Inc/stm32g0xx_ll_adc.h **** /**
1172:Drivers/STM32G0xx_HAL_Driver/Inc/stm32g0xx_ll_adc.h ****   * @brief  Helper macro to determine whether the internal channel
1173:Drivers/STM32G0xx_HAL_Driver/Inc/stm32g0xx_ll_adc.h ****   *         selected is available on the ADC instance selected.
1174:Drivers/STM32G0xx_HAL_Driver/Inc/stm32g0xx_ll_adc.h ****   * @note   The channel parameter must be a value defined from parameter
1175:Drivers/STM32G0xx_HAL_Driver/Inc/stm32g0xx_ll_adc.h ****   *         definition of a ADC internal channel (LL_ADC_CHANNEL_VREFINT,
1176:Drivers/STM32G0xx_HAL_Driver/Inc/stm32g0xx_ll_adc.h ****   *         LL_ADC_CHANNEL_TEMPSENSOR, ...),
1177:Drivers/STM32G0xx_HAL_Driver/Inc/stm32g0xx_ll_adc.h ****   *         must not be a value defined from parameter definition of
1178:Drivers/STM32G0xx_HAL_Driver/Inc/stm32g0xx_ll_adc.h ****   *         ADC external channel (LL_ADC_CHANNEL_1, LL_ADC_CHANNEL_2, ...)
ARM GAS  /tmp/ccAd34n9.s 			page 25


1179:Drivers/STM32G0xx_HAL_Driver/Inc/stm32g0xx_ll_adc.h ****   *         or a value from functions where a channel number is
1180:Drivers/STM32G0xx_HAL_Driver/Inc/stm32g0xx_ll_adc.h ****   *         returned from ADC registers,
1181:Drivers/STM32G0xx_HAL_Driver/Inc/stm32g0xx_ll_adc.h ****   *         because internal and external channels share the same channel
1182:Drivers/STM32G0xx_HAL_Driver/Inc/stm32g0xx_ll_adc.h ****   *         number in ADC registers. The differentiation is made only with
1183:Drivers/STM32G0xx_HAL_Driver/Inc/stm32g0xx_ll_adc.h ****   *         parameters definitions of driver.
1184:Drivers/STM32G0xx_HAL_Driver/Inc/stm32g0xx_ll_adc.h ****   * @param  __ADC_INSTANCE__ ADC instance
1185:Drivers/STM32G0xx_HAL_Driver/Inc/stm32g0xx_ll_adc.h ****   * @param  __CHANNEL__ This parameter can be one of the following values:
1186:Drivers/STM32G0xx_HAL_Driver/Inc/stm32g0xx_ll_adc.h ****   *         @arg @ref LL_ADC_CHANNEL_VREFINT
1187:Drivers/STM32G0xx_HAL_Driver/Inc/stm32g0xx_ll_adc.h ****   *         @arg @ref LL_ADC_CHANNEL_TEMPSENSOR
1188:Drivers/STM32G0xx_HAL_Driver/Inc/stm32g0xx_ll_adc.h ****   *         @arg @ref LL_ADC_CHANNEL_VBAT
1189:Drivers/STM32G0xx_HAL_Driver/Inc/stm32g0xx_ll_adc.h ****   * @retval Value "0" if the internal channel selected is not available on the ADC instance selecte
1190:Drivers/STM32G0xx_HAL_Driver/Inc/stm32g0xx_ll_adc.h ****   *         Value "1" if the internal channel selected is available on the ADC instance selected.
1191:Drivers/STM32G0xx_HAL_Driver/Inc/stm32g0xx_ll_adc.h ****   */
1192:Drivers/STM32G0xx_HAL_Driver/Inc/stm32g0xx_ll_adc.h **** #define __LL_ADC_IS_CHANNEL_INTERNAL_AVAILABLE(__ADC_INSTANCE__, __CHANNEL__)  \
1193:Drivers/STM32G0xx_HAL_Driver/Inc/stm32g0xx_ll_adc.h ****   (((__CHANNEL__) == LL_ADC_CHANNEL_VREFINT)    ||                             \
1194:Drivers/STM32G0xx_HAL_Driver/Inc/stm32g0xx_ll_adc.h ****    ((__CHANNEL__) == LL_ADC_CHANNEL_TEMPSENSOR) ||                             \
1195:Drivers/STM32G0xx_HAL_Driver/Inc/stm32g0xx_ll_adc.h ****    ((__CHANNEL__) == LL_ADC_CHANNEL_VBAT))
1196:Drivers/STM32G0xx_HAL_Driver/Inc/stm32g0xx_ll_adc.h **** 
1197:Drivers/STM32G0xx_HAL_Driver/Inc/stm32g0xx_ll_adc.h **** /**
1198:Drivers/STM32G0xx_HAL_Driver/Inc/stm32g0xx_ll_adc.h ****   * @brief  Helper macro to define ADC analog watchdog parameter:
1199:Drivers/STM32G0xx_HAL_Driver/Inc/stm32g0xx_ll_adc.h ****   *         define a single channel to monitor with analog watchdog
1200:Drivers/STM32G0xx_HAL_Driver/Inc/stm32g0xx_ll_adc.h ****   *         from sequencer channel and groups definition.
1201:Drivers/STM32G0xx_HAL_Driver/Inc/stm32g0xx_ll_adc.h ****   * @note   To be used with function @ref LL_ADC_SetAnalogWDMonitChannels().
1202:Drivers/STM32G0xx_HAL_Driver/Inc/stm32g0xx_ll_adc.h ****   *         Example:
1203:Drivers/STM32G0xx_HAL_Driver/Inc/stm32g0xx_ll_adc.h ****   *           LL_ADC_SetAnalogWDMonitChannels(
1204:Drivers/STM32G0xx_HAL_Driver/Inc/stm32g0xx_ll_adc.h ****   *             ADC1, LL_ADC_AWD1,
1205:Drivers/STM32G0xx_HAL_Driver/Inc/stm32g0xx_ll_adc.h ****   *             __LL_ADC_ANALOGWD_CHANNEL_GROUP(LL_ADC_CHANNEL4, LL_ADC_GROUP_REGULAR))
1206:Drivers/STM32G0xx_HAL_Driver/Inc/stm32g0xx_ll_adc.h ****   * @param  __CHANNEL__ This parameter can be one of the following values:
1207:Drivers/STM32G0xx_HAL_Driver/Inc/stm32g0xx_ll_adc.h ****   *         @arg @ref LL_ADC_CHANNEL_0
1208:Drivers/STM32G0xx_HAL_Driver/Inc/stm32g0xx_ll_adc.h ****   *         @arg @ref LL_ADC_CHANNEL_1
1209:Drivers/STM32G0xx_HAL_Driver/Inc/stm32g0xx_ll_adc.h ****   *         @arg @ref LL_ADC_CHANNEL_2
1210:Drivers/STM32G0xx_HAL_Driver/Inc/stm32g0xx_ll_adc.h ****   *         @arg @ref LL_ADC_CHANNEL_3
1211:Drivers/STM32G0xx_HAL_Driver/Inc/stm32g0xx_ll_adc.h ****   *         @arg @ref LL_ADC_CHANNEL_4
1212:Drivers/STM32G0xx_HAL_Driver/Inc/stm32g0xx_ll_adc.h ****   *         @arg @ref LL_ADC_CHANNEL_5
1213:Drivers/STM32G0xx_HAL_Driver/Inc/stm32g0xx_ll_adc.h ****   *         @arg @ref LL_ADC_CHANNEL_6
1214:Drivers/STM32G0xx_HAL_Driver/Inc/stm32g0xx_ll_adc.h ****   *         @arg @ref LL_ADC_CHANNEL_7
1215:Drivers/STM32G0xx_HAL_Driver/Inc/stm32g0xx_ll_adc.h ****   *         @arg @ref LL_ADC_CHANNEL_8
1216:Drivers/STM32G0xx_HAL_Driver/Inc/stm32g0xx_ll_adc.h ****   *         @arg @ref LL_ADC_CHANNEL_9
1217:Drivers/STM32G0xx_HAL_Driver/Inc/stm32g0xx_ll_adc.h ****   *         @arg @ref LL_ADC_CHANNEL_10
1218:Drivers/STM32G0xx_HAL_Driver/Inc/stm32g0xx_ll_adc.h ****   *         @arg @ref LL_ADC_CHANNEL_11
1219:Drivers/STM32G0xx_HAL_Driver/Inc/stm32g0xx_ll_adc.h ****   *         @arg @ref LL_ADC_CHANNEL_12
1220:Drivers/STM32G0xx_HAL_Driver/Inc/stm32g0xx_ll_adc.h ****   *         @arg @ref LL_ADC_CHANNEL_13
1221:Drivers/STM32G0xx_HAL_Driver/Inc/stm32g0xx_ll_adc.h ****   *         @arg @ref LL_ADC_CHANNEL_14
1222:Drivers/STM32G0xx_HAL_Driver/Inc/stm32g0xx_ll_adc.h ****   *         @arg @ref LL_ADC_CHANNEL_15         (1)
1223:Drivers/STM32G0xx_HAL_Driver/Inc/stm32g0xx_ll_adc.h ****   *         @arg @ref LL_ADC_CHANNEL_16         (1)
1224:Drivers/STM32G0xx_HAL_Driver/Inc/stm32g0xx_ll_adc.h ****   *         @arg @ref LL_ADC_CHANNEL_17         (1)
1225:Drivers/STM32G0xx_HAL_Driver/Inc/stm32g0xx_ll_adc.h ****   *         @arg @ref LL_ADC_CHANNEL_18
1226:Drivers/STM32G0xx_HAL_Driver/Inc/stm32g0xx_ll_adc.h ****   *         @arg @ref LL_ADC_CHANNEL_VREFINT    (2)
1227:Drivers/STM32G0xx_HAL_Driver/Inc/stm32g0xx_ll_adc.h ****   *         @arg @ref LL_ADC_CHANNEL_TEMPSENSOR (2)
1228:Drivers/STM32G0xx_HAL_Driver/Inc/stm32g0xx_ll_adc.h ****   *         @arg @ref LL_ADC_CHANNEL_VBAT       (2)
1229:Drivers/STM32G0xx_HAL_Driver/Inc/stm32g0xx_ll_adc.h ****   *
1230:Drivers/STM32G0xx_HAL_Driver/Inc/stm32g0xx_ll_adc.h ****   *         (1) On STM32G0, parameter can be set in ADC group sequencer
1231:Drivers/STM32G0xx_HAL_Driver/Inc/stm32g0xx_ll_adc.h ****   *             only if sequencer is set in mode "not fully configurable",
1232:Drivers/STM32G0xx_HAL_Driver/Inc/stm32g0xx_ll_adc.h ****   *             refer to function @ref LL_ADC_REG_SetSequencerConfigurable().\n
1233:Drivers/STM32G0xx_HAL_Driver/Inc/stm32g0xx_ll_adc.h ****   *         (2) For ADC channel read back from ADC register,
1234:Drivers/STM32G0xx_HAL_Driver/Inc/stm32g0xx_ll_adc.h ****   *             comparison with internal channel parameter to be done
1235:Drivers/STM32G0xx_HAL_Driver/Inc/stm32g0xx_ll_adc.h ****   *             using helper macro @ref __LL_ADC_CHANNEL_INTERNAL_TO_EXTERNAL().
ARM GAS  /tmp/ccAd34n9.s 			page 26


1236:Drivers/STM32G0xx_HAL_Driver/Inc/stm32g0xx_ll_adc.h ****   * @param  __GROUP__ This parameter can be one of the following values:
1237:Drivers/STM32G0xx_HAL_Driver/Inc/stm32g0xx_ll_adc.h ****   *         @arg @ref LL_ADC_GROUP_REGULAR
1238:Drivers/STM32G0xx_HAL_Driver/Inc/stm32g0xx_ll_adc.h ****   * @retval Returned value can be one of the following values:
1239:Drivers/STM32G0xx_HAL_Driver/Inc/stm32g0xx_ll_adc.h ****   *         @arg @ref LL_ADC_AWD_DISABLE
1240:Drivers/STM32G0xx_HAL_Driver/Inc/stm32g0xx_ll_adc.h ****   *         @arg @ref LL_ADC_AWD_ALL_CHANNELS_REG
1241:Drivers/STM32G0xx_HAL_Driver/Inc/stm32g0xx_ll_adc.h ****   *         @arg @ref LL_ADC_AWD_CHANNEL_0_REG
1242:Drivers/STM32G0xx_HAL_Driver/Inc/stm32g0xx_ll_adc.h ****   *         @arg @ref LL_ADC_AWD_CHANNEL_1_REG
1243:Drivers/STM32G0xx_HAL_Driver/Inc/stm32g0xx_ll_adc.h ****   *         @arg @ref LL_ADC_AWD_CHANNEL_2_REG
1244:Drivers/STM32G0xx_HAL_Driver/Inc/stm32g0xx_ll_adc.h ****   *         @arg @ref LL_ADC_AWD_CHANNEL_3_REG
1245:Drivers/STM32G0xx_HAL_Driver/Inc/stm32g0xx_ll_adc.h ****   *         @arg @ref LL_ADC_AWD_CHANNEL_4_REG
1246:Drivers/STM32G0xx_HAL_Driver/Inc/stm32g0xx_ll_adc.h ****   *         @arg @ref LL_ADC_AWD_CHANNEL_5_REG
1247:Drivers/STM32G0xx_HAL_Driver/Inc/stm32g0xx_ll_adc.h ****   *         @arg @ref LL_ADC_AWD_CHANNEL_6_REG
1248:Drivers/STM32G0xx_HAL_Driver/Inc/stm32g0xx_ll_adc.h ****   *         @arg @ref LL_ADC_AWD_CHANNEL_7_REG
1249:Drivers/STM32G0xx_HAL_Driver/Inc/stm32g0xx_ll_adc.h ****   *         @arg @ref LL_ADC_AWD_CHANNEL_8_REG
1250:Drivers/STM32G0xx_HAL_Driver/Inc/stm32g0xx_ll_adc.h ****   *         @arg @ref LL_ADC_AWD_CHANNEL_9_REG
1251:Drivers/STM32G0xx_HAL_Driver/Inc/stm32g0xx_ll_adc.h ****   *         @arg @ref LL_ADC_AWD_CHANNEL_10_REG
1252:Drivers/STM32G0xx_HAL_Driver/Inc/stm32g0xx_ll_adc.h ****   *         @arg @ref LL_ADC_AWD_CHANNEL_11_REG
1253:Drivers/STM32G0xx_HAL_Driver/Inc/stm32g0xx_ll_adc.h ****   *         @arg @ref LL_ADC_AWD_CHANNEL_12_REG
1254:Drivers/STM32G0xx_HAL_Driver/Inc/stm32g0xx_ll_adc.h ****   *         @arg @ref LL_ADC_AWD_CHANNEL_13_REG
1255:Drivers/STM32G0xx_HAL_Driver/Inc/stm32g0xx_ll_adc.h ****   *         @arg @ref LL_ADC_AWD_CHANNEL_14_REG
1256:Drivers/STM32G0xx_HAL_Driver/Inc/stm32g0xx_ll_adc.h ****   *         @arg @ref LL_ADC_AWD_CHANNEL_15_REG
1257:Drivers/STM32G0xx_HAL_Driver/Inc/stm32g0xx_ll_adc.h ****   *         @arg @ref LL_ADC_AWD_CHANNEL_16_REG
1258:Drivers/STM32G0xx_HAL_Driver/Inc/stm32g0xx_ll_adc.h ****   *         @arg @ref LL_ADC_AWD_CHANNEL_17_REG
1259:Drivers/STM32G0xx_HAL_Driver/Inc/stm32g0xx_ll_adc.h ****   *         @arg @ref LL_ADC_AWD_CHANNEL_18_REG
1260:Drivers/STM32G0xx_HAL_Driver/Inc/stm32g0xx_ll_adc.h ****   *         @arg @ref LL_ADC_AWD_CH_VREFINT_REG
1261:Drivers/STM32G0xx_HAL_Driver/Inc/stm32g0xx_ll_adc.h ****   *         @arg @ref LL_ADC_AWD_CH_TEMPSENSOR_REG
1262:Drivers/STM32G0xx_HAL_Driver/Inc/stm32g0xx_ll_adc.h ****   *         @arg @ref LL_ADC_AWD_CH_VBAT_REG
1263:Drivers/STM32G0xx_HAL_Driver/Inc/stm32g0xx_ll_adc.h ****   */
1264:Drivers/STM32G0xx_HAL_Driver/Inc/stm32g0xx_ll_adc.h **** #define __LL_ADC_ANALOGWD_CHANNEL_GROUP(__CHANNEL__, __GROUP__)                                    
1265:Drivers/STM32G0xx_HAL_Driver/Inc/stm32g0xx_ll_adc.h ****   (((__CHANNEL__) & ADC_CHANNEL_ID_MASK) | ADC_CFGR1_AWD1EN | ADC_CFGR1_AWD1SGL)
1266:Drivers/STM32G0xx_HAL_Driver/Inc/stm32g0xx_ll_adc.h **** 
1267:Drivers/STM32G0xx_HAL_Driver/Inc/stm32g0xx_ll_adc.h **** /**
1268:Drivers/STM32G0xx_HAL_Driver/Inc/stm32g0xx_ll_adc.h ****   * @brief  Helper macro to set the value of ADC analog watchdog threshold high
1269:Drivers/STM32G0xx_HAL_Driver/Inc/stm32g0xx_ll_adc.h ****   *         or low in function of ADC resolution, when ADC resolution is
1270:Drivers/STM32G0xx_HAL_Driver/Inc/stm32g0xx_ll_adc.h ****   *         different of 12 bits.
1271:Drivers/STM32G0xx_HAL_Driver/Inc/stm32g0xx_ll_adc.h ****   * @note   To be used with function @ref LL_ADC_ConfigAnalogWDThresholds()
1272:Drivers/STM32G0xx_HAL_Driver/Inc/stm32g0xx_ll_adc.h ****   *         or @ref LL_ADC_SetAnalogWDThresholds().
1273:Drivers/STM32G0xx_HAL_Driver/Inc/stm32g0xx_ll_adc.h ****   *         Example, with a ADC resolution of 8 bits, to set the value of
1274:Drivers/STM32G0xx_HAL_Driver/Inc/stm32g0xx_ll_adc.h ****   *         analog watchdog threshold high (on 8 bits):
1275:Drivers/STM32G0xx_HAL_Driver/Inc/stm32g0xx_ll_adc.h ****   *           LL_ADC_SetAnalogWDThresholds
1276:Drivers/STM32G0xx_HAL_Driver/Inc/stm32g0xx_ll_adc.h ****   *            (< ADCx param >,
1277:Drivers/STM32G0xx_HAL_Driver/Inc/stm32g0xx_ll_adc.h ****   *             __LL_ADC_ANALOGWD_SET_THRESHOLD_RESOLUTION(LL_ADC_RESOLUTION_8B, <threshold_value_8
1278:Drivers/STM32G0xx_HAL_Driver/Inc/stm32g0xx_ll_adc.h ****   *            );
1279:Drivers/STM32G0xx_HAL_Driver/Inc/stm32g0xx_ll_adc.h ****   * @param  __ADC_RESOLUTION__ This parameter can be one of the following values:
1280:Drivers/STM32G0xx_HAL_Driver/Inc/stm32g0xx_ll_adc.h ****   *         @arg @ref LL_ADC_RESOLUTION_12B
1281:Drivers/STM32G0xx_HAL_Driver/Inc/stm32g0xx_ll_adc.h ****   *         @arg @ref LL_ADC_RESOLUTION_10B
1282:Drivers/STM32G0xx_HAL_Driver/Inc/stm32g0xx_ll_adc.h ****   *         @arg @ref LL_ADC_RESOLUTION_8B
1283:Drivers/STM32G0xx_HAL_Driver/Inc/stm32g0xx_ll_adc.h ****   *         @arg @ref LL_ADC_RESOLUTION_6B
1284:Drivers/STM32G0xx_HAL_Driver/Inc/stm32g0xx_ll_adc.h ****   * @param  __AWD_THRESHOLD__ Value between Min_Data=0x000 and Max_Data=0xFFF
1285:Drivers/STM32G0xx_HAL_Driver/Inc/stm32g0xx_ll_adc.h ****   * @retval Value between Min_Data=0x000 and Max_Data=0xFFF
1286:Drivers/STM32G0xx_HAL_Driver/Inc/stm32g0xx_ll_adc.h ****   */
1287:Drivers/STM32G0xx_HAL_Driver/Inc/stm32g0xx_ll_adc.h **** #define __LL_ADC_ANALOGWD_SET_THRESHOLD_RESOLUTION(__ADC_RESOLUTION__, __AWD_THRESHOLD__) \
1288:Drivers/STM32G0xx_HAL_Driver/Inc/stm32g0xx_ll_adc.h ****   ((__AWD_THRESHOLD__) << ((__ADC_RESOLUTION__) >> (ADC_CFGR1_RES_BITOFFSET_POS - 1U )))
1289:Drivers/STM32G0xx_HAL_Driver/Inc/stm32g0xx_ll_adc.h **** 
1290:Drivers/STM32G0xx_HAL_Driver/Inc/stm32g0xx_ll_adc.h **** /**
1291:Drivers/STM32G0xx_HAL_Driver/Inc/stm32g0xx_ll_adc.h ****   * @brief  Helper macro to get the value of ADC analog watchdog threshold high
1292:Drivers/STM32G0xx_HAL_Driver/Inc/stm32g0xx_ll_adc.h ****   *         or low in function of ADC resolution, when ADC resolution is
ARM GAS  /tmp/ccAd34n9.s 			page 27


1293:Drivers/STM32G0xx_HAL_Driver/Inc/stm32g0xx_ll_adc.h ****   *         different of 12 bits.
1294:Drivers/STM32G0xx_HAL_Driver/Inc/stm32g0xx_ll_adc.h ****   * @note   To be used with function @ref LL_ADC_GetAnalogWDThresholds().
1295:Drivers/STM32G0xx_HAL_Driver/Inc/stm32g0xx_ll_adc.h ****   *         Example, with a ADC resolution of 8 bits, to get the value of
1296:Drivers/STM32G0xx_HAL_Driver/Inc/stm32g0xx_ll_adc.h ****   *         analog watchdog threshold high (on 8 bits):
1297:Drivers/STM32G0xx_HAL_Driver/Inc/stm32g0xx_ll_adc.h ****   *           < threshold_value_6_bits > = __LL_ADC_ANALOGWD_GET_THRESHOLD_RESOLUTION
1298:Drivers/STM32G0xx_HAL_Driver/Inc/stm32g0xx_ll_adc.h ****   *            (LL_ADC_RESOLUTION_8B,
1299:Drivers/STM32G0xx_HAL_Driver/Inc/stm32g0xx_ll_adc.h ****   *             LL_ADC_GetAnalogWDThresholds(<ADCx param>, LL_ADC_AWD_THRESHOLD_HIGH)
1300:Drivers/STM32G0xx_HAL_Driver/Inc/stm32g0xx_ll_adc.h ****   *            );
1301:Drivers/STM32G0xx_HAL_Driver/Inc/stm32g0xx_ll_adc.h ****   * @param  __ADC_RESOLUTION__ This parameter can be one of the following values:
1302:Drivers/STM32G0xx_HAL_Driver/Inc/stm32g0xx_ll_adc.h ****   *         @arg @ref LL_ADC_RESOLUTION_12B
1303:Drivers/STM32G0xx_HAL_Driver/Inc/stm32g0xx_ll_adc.h ****   *         @arg @ref LL_ADC_RESOLUTION_10B
1304:Drivers/STM32G0xx_HAL_Driver/Inc/stm32g0xx_ll_adc.h ****   *         @arg @ref LL_ADC_RESOLUTION_8B
1305:Drivers/STM32G0xx_HAL_Driver/Inc/stm32g0xx_ll_adc.h ****   *         @arg @ref LL_ADC_RESOLUTION_6B
1306:Drivers/STM32G0xx_HAL_Driver/Inc/stm32g0xx_ll_adc.h ****   * @param  __AWD_THRESHOLD_12_BITS__ Value between Min_Data=0x000 and Max_Data=0xFFF
1307:Drivers/STM32G0xx_HAL_Driver/Inc/stm32g0xx_ll_adc.h ****   * @retval Value between Min_Data=0x000 and Max_Data=0xFFF
1308:Drivers/STM32G0xx_HAL_Driver/Inc/stm32g0xx_ll_adc.h ****   */
1309:Drivers/STM32G0xx_HAL_Driver/Inc/stm32g0xx_ll_adc.h **** #define __LL_ADC_ANALOGWD_GET_THRESHOLD_RESOLUTION(__ADC_RESOLUTION__, __AWD_THRESHOLD_12_BITS__) \
1310:Drivers/STM32G0xx_HAL_Driver/Inc/stm32g0xx_ll_adc.h ****   ((__AWD_THRESHOLD_12_BITS__) >> ((__ADC_RESOLUTION__) >> (ADC_CFGR1_RES_BITOFFSET_POS - 1U )))
1311:Drivers/STM32G0xx_HAL_Driver/Inc/stm32g0xx_ll_adc.h **** 
1312:Drivers/STM32G0xx_HAL_Driver/Inc/stm32g0xx_ll_adc.h **** /**
1313:Drivers/STM32G0xx_HAL_Driver/Inc/stm32g0xx_ll_adc.h ****   * @brief  Helper macro to get the ADC analog watchdog threshold high
1314:Drivers/STM32G0xx_HAL_Driver/Inc/stm32g0xx_ll_adc.h ****   *         or low from raw value containing both thresholds concatenated.
1315:Drivers/STM32G0xx_HAL_Driver/Inc/stm32g0xx_ll_adc.h ****   * @note   To be used with function @ref LL_ADC_GetAnalogWDThresholds().
1316:Drivers/STM32G0xx_HAL_Driver/Inc/stm32g0xx_ll_adc.h ****   *         Example, to get analog watchdog threshold high from the register raw value:
1317:Drivers/STM32G0xx_HAL_Driver/Inc/stm32g0xx_ll_adc.h ****   *           __LL_ADC_ANALOGWD_THRESHOLDS_HIGH_LOW(LL_ADC_AWD_THRESHOLD_HIGH, <raw_value_with_both
1318:Drivers/STM32G0xx_HAL_Driver/Inc/stm32g0xx_ll_adc.h ****   * @param  __AWD_THRESHOLD_TYPE__ This parameter can be one of the following values:
1319:Drivers/STM32G0xx_HAL_Driver/Inc/stm32g0xx_ll_adc.h ****   *         @arg @ref LL_ADC_AWD_THRESHOLD_HIGH
1320:Drivers/STM32G0xx_HAL_Driver/Inc/stm32g0xx_ll_adc.h ****   *         @arg @ref LL_ADC_AWD_THRESHOLD_LOW
1321:Drivers/STM32G0xx_HAL_Driver/Inc/stm32g0xx_ll_adc.h ****   * @param  __AWD_THRESHOLDS__ Value between Min_Data=0x00000000 and Max_Data=0xFFFFFFFF
1322:Drivers/STM32G0xx_HAL_Driver/Inc/stm32g0xx_ll_adc.h ****   * @retval Value between Min_Data=0x000 and Max_Data=0xFFF
1323:Drivers/STM32G0xx_HAL_Driver/Inc/stm32g0xx_ll_adc.h ****   */
1324:Drivers/STM32G0xx_HAL_Driver/Inc/stm32g0xx_ll_adc.h **** #define __LL_ADC_ANALOGWD_THRESHOLDS_HIGH_LOW(__AWD_THRESHOLD_TYPE__, __AWD_THRESHOLDS__)       \
1325:Drivers/STM32G0xx_HAL_Driver/Inc/stm32g0xx_ll_adc.h ****   (((__AWD_THRESHOLDS__) >> (((__AWD_THRESHOLD_TYPE__) & ADC_AWD_TRX_BIT_HIGH_MASK) >> ADC_AWD_TRX_
1326:Drivers/STM32G0xx_HAL_Driver/Inc/stm32g0xx_ll_adc.h **** 
1327:Drivers/STM32G0xx_HAL_Driver/Inc/stm32g0xx_ll_adc.h **** /**
1328:Drivers/STM32G0xx_HAL_Driver/Inc/stm32g0xx_ll_adc.h ****   * @brief  Helper macro to select the ADC common instance
1329:Drivers/STM32G0xx_HAL_Driver/Inc/stm32g0xx_ll_adc.h ****   *         to which is belonging the selected ADC instance.
1330:Drivers/STM32G0xx_HAL_Driver/Inc/stm32g0xx_ll_adc.h ****   * @note   ADC common register instance can be used for:
1331:Drivers/STM32G0xx_HAL_Driver/Inc/stm32g0xx_ll_adc.h ****   *         - Set parameters common to several ADC instances
1332:Drivers/STM32G0xx_HAL_Driver/Inc/stm32g0xx_ll_adc.h ****   *         - Multimode (for devices with several ADC instances)
1333:Drivers/STM32G0xx_HAL_Driver/Inc/stm32g0xx_ll_adc.h ****   *         Refer to functions having argument "ADCxy_COMMON" as parameter.
1334:Drivers/STM32G0xx_HAL_Driver/Inc/stm32g0xx_ll_adc.h ****   * @param  __ADCx__ ADC instance
1335:Drivers/STM32G0xx_HAL_Driver/Inc/stm32g0xx_ll_adc.h ****   * @retval ADC common register instance
1336:Drivers/STM32G0xx_HAL_Driver/Inc/stm32g0xx_ll_adc.h ****   */
1337:Drivers/STM32G0xx_HAL_Driver/Inc/stm32g0xx_ll_adc.h **** #define __LL_ADC_COMMON_INSTANCE(__ADCx__)                                     \
1338:Drivers/STM32G0xx_HAL_Driver/Inc/stm32g0xx_ll_adc.h ****   (ADC1_COMMON)
1339:Drivers/STM32G0xx_HAL_Driver/Inc/stm32g0xx_ll_adc.h **** 
1340:Drivers/STM32G0xx_HAL_Driver/Inc/stm32g0xx_ll_adc.h **** /**
1341:Drivers/STM32G0xx_HAL_Driver/Inc/stm32g0xx_ll_adc.h ****   * @brief  Helper macro to check if all ADC instances sharing the same
1342:Drivers/STM32G0xx_HAL_Driver/Inc/stm32g0xx_ll_adc.h ****   *         ADC common instance are disabled.
1343:Drivers/STM32G0xx_HAL_Driver/Inc/stm32g0xx_ll_adc.h ****   * @note   This check is required by functions with setting conditioned to
1344:Drivers/STM32G0xx_HAL_Driver/Inc/stm32g0xx_ll_adc.h ****   *         ADC state:
1345:Drivers/STM32G0xx_HAL_Driver/Inc/stm32g0xx_ll_adc.h ****   *         All ADC instances of the ADC common group must be disabled.
1346:Drivers/STM32G0xx_HAL_Driver/Inc/stm32g0xx_ll_adc.h ****   *         Refer to functions having argument "ADCxy_COMMON" as parameter.
1347:Drivers/STM32G0xx_HAL_Driver/Inc/stm32g0xx_ll_adc.h ****   * @note   On devices with only 1 ADC common instance, parameter of this macro
1348:Drivers/STM32G0xx_HAL_Driver/Inc/stm32g0xx_ll_adc.h ****   *         is useless and can be ignored (parameter kept for compatibility
1349:Drivers/STM32G0xx_HAL_Driver/Inc/stm32g0xx_ll_adc.h ****   *         with devices featuring several ADC common instances).
ARM GAS  /tmp/ccAd34n9.s 			page 28


1350:Drivers/STM32G0xx_HAL_Driver/Inc/stm32g0xx_ll_adc.h ****   * @param  __ADCXY_COMMON__ ADC common instance
1351:Drivers/STM32G0xx_HAL_Driver/Inc/stm32g0xx_ll_adc.h ****   *         (can be set directly from CMSIS definition or by using helper macro @ref __LL_ADC_COMMO
1352:Drivers/STM32G0xx_HAL_Driver/Inc/stm32g0xx_ll_adc.h ****   * @retval Value "0" if all ADC instances sharing the same ADC common instance
1353:Drivers/STM32G0xx_HAL_Driver/Inc/stm32g0xx_ll_adc.h ****   *         are disabled.
1354:Drivers/STM32G0xx_HAL_Driver/Inc/stm32g0xx_ll_adc.h ****   *         Value "1" if at least one ADC instance sharing the same ADC common instance
1355:Drivers/STM32G0xx_HAL_Driver/Inc/stm32g0xx_ll_adc.h ****   *         is enabled.
1356:Drivers/STM32G0xx_HAL_Driver/Inc/stm32g0xx_ll_adc.h ****   */
1357:Drivers/STM32G0xx_HAL_Driver/Inc/stm32g0xx_ll_adc.h **** #define __LL_ADC_IS_ENABLED_ALL_COMMON_INSTANCE(__ADCXY_COMMON__)              \
1358:Drivers/STM32G0xx_HAL_Driver/Inc/stm32g0xx_ll_adc.h ****   LL_ADC_IsEnabled(ADC1)
1359:Drivers/STM32G0xx_HAL_Driver/Inc/stm32g0xx_ll_adc.h **** 
1360:Drivers/STM32G0xx_HAL_Driver/Inc/stm32g0xx_ll_adc.h **** /**
1361:Drivers/STM32G0xx_HAL_Driver/Inc/stm32g0xx_ll_adc.h ****   * @brief  Helper macro to define the ADC conversion data full-scale digital
1362:Drivers/STM32G0xx_HAL_Driver/Inc/stm32g0xx_ll_adc.h ****   *         value corresponding to the selected ADC resolution.
1363:Drivers/STM32G0xx_HAL_Driver/Inc/stm32g0xx_ll_adc.h ****   * @note   ADC conversion data full-scale corresponds to voltage range
1364:Drivers/STM32G0xx_HAL_Driver/Inc/stm32g0xx_ll_adc.h ****   *         determined by analog voltage references Vref+ and Vref-
1365:Drivers/STM32G0xx_HAL_Driver/Inc/stm32g0xx_ll_adc.h ****   *         (refer to reference manual).
1366:Drivers/STM32G0xx_HAL_Driver/Inc/stm32g0xx_ll_adc.h ****   * @param  __ADC_RESOLUTION__ This parameter can be one of the following values:
1367:Drivers/STM32G0xx_HAL_Driver/Inc/stm32g0xx_ll_adc.h ****   *         @arg @ref LL_ADC_RESOLUTION_12B
1368:Drivers/STM32G0xx_HAL_Driver/Inc/stm32g0xx_ll_adc.h ****   *         @arg @ref LL_ADC_RESOLUTION_10B
1369:Drivers/STM32G0xx_HAL_Driver/Inc/stm32g0xx_ll_adc.h ****   *         @arg @ref LL_ADC_RESOLUTION_8B
1370:Drivers/STM32G0xx_HAL_Driver/Inc/stm32g0xx_ll_adc.h ****   *         @arg @ref LL_ADC_RESOLUTION_6B
1371:Drivers/STM32G0xx_HAL_Driver/Inc/stm32g0xx_ll_adc.h ****   * @retval ADC conversion data full-scale digital value (unit: digital value of ADC conversion dat
1372:Drivers/STM32G0xx_HAL_Driver/Inc/stm32g0xx_ll_adc.h ****   */
1373:Drivers/STM32G0xx_HAL_Driver/Inc/stm32g0xx_ll_adc.h **** #define __LL_ADC_DIGITAL_SCALE(__ADC_RESOLUTION__)                             \
1374:Drivers/STM32G0xx_HAL_Driver/Inc/stm32g0xx_ll_adc.h ****   (0xFFFUL >> ((__ADC_RESOLUTION__) >> (ADC_CFGR1_RES_BITOFFSET_POS - 1UL)))
1375:Drivers/STM32G0xx_HAL_Driver/Inc/stm32g0xx_ll_adc.h **** 
1376:Drivers/STM32G0xx_HAL_Driver/Inc/stm32g0xx_ll_adc.h **** /**
1377:Drivers/STM32G0xx_HAL_Driver/Inc/stm32g0xx_ll_adc.h ****   * @brief  Helper macro to convert the ADC conversion data from
1378:Drivers/STM32G0xx_HAL_Driver/Inc/stm32g0xx_ll_adc.h ****   *         a resolution to another resolution.
1379:Drivers/STM32G0xx_HAL_Driver/Inc/stm32g0xx_ll_adc.h ****   * @param  __DATA__ ADC conversion data to be converted
1380:Drivers/STM32G0xx_HAL_Driver/Inc/stm32g0xx_ll_adc.h ****   * @param  __ADC_RESOLUTION_CURRENT__ Resolution of the data to be converted
1381:Drivers/STM32G0xx_HAL_Driver/Inc/stm32g0xx_ll_adc.h ****   *         This parameter can be one of the following values:
1382:Drivers/STM32G0xx_HAL_Driver/Inc/stm32g0xx_ll_adc.h ****   *         @arg @ref LL_ADC_RESOLUTION_12B
1383:Drivers/STM32G0xx_HAL_Driver/Inc/stm32g0xx_ll_adc.h ****   *         @arg @ref LL_ADC_RESOLUTION_10B
1384:Drivers/STM32G0xx_HAL_Driver/Inc/stm32g0xx_ll_adc.h ****   *         @arg @ref LL_ADC_RESOLUTION_8B
1385:Drivers/STM32G0xx_HAL_Driver/Inc/stm32g0xx_ll_adc.h ****   *         @arg @ref LL_ADC_RESOLUTION_6B
1386:Drivers/STM32G0xx_HAL_Driver/Inc/stm32g0xx_ll_adc.h ****   * @param  __ADC_RESOLUTION_TARGET__ Resolution of the data after conversion
1387:Drivers/STM32G0xx_HAL_Driver/Inc/stm32g0xx_ll_adc.h ****   *         This parameter can be one of the following values:
1388:Drivers/STM32G0xx_HAL_Driver/Inc/stm32g0xx_ll_adc.h ****   *         @arg @ref LL_ADC_RESOLUTION_12B
1389:Drivers/STM32G0xx_HAL_Driver/Inc/stm32g0xx_ll_adc.h ****   *         @arg @ref LL_ADC_RESOLUTION_10B
1390:Drivers/STM32G0xx_HAL_Driver/Inc/stm32g0xx_ll_adc.h ****   *         @arg @ref LL_ADC_RESOLUTION_8B
1391:Drivers/STM32G0xx_HAL_Driver/Inc/stm32g0xx_ll_adc.h ****   *         @arg @ref LL_ADC_RESOLUTION_6B
1392:Drivers/STM32G0xx_HAL_Driver/Inc/stm32g0xx_ll_adc.h ****   * @retval ADC conversion data to the requested resolution
1393:Drivers/STM32G0xx_HAL_Driver/Inc/stm32g0xx_ll_adc.h ****   */
1394:Drivers/STM32G0xx_HAL_Driver/Inc/stm32g0xx_ll_adc.h **** #define __LL_ADC_CONVERT_DATA_RESOLUTION(__DATA__,\
1395:Drivers/STM32G0xx_HAL_Driver/Inc/stm32g0xx_ll_adc.h ****                                          __ADC_RESOLUTION_CURRENT__,\
1396:Drivers/STM32G0xx_HAL_Driver/Inc/stm32g0xx_ll_adc.h ****                                          __ADC_RESOLUTION_TARGET__)          \
1397:Drivers/STM32G0xx_HAL_Driver/Inc/stm32g0xx_ll_adc.h **** (((__DATA__)                                                                 \
1398:Drivers/STM32G0xx_HAL_Driver/Inc/stm32g0xx_ll_adc.h ****   << ((__ADC_RESOLUTION_CURRENT__) >> (ADC_CFGR1_RES_BITOFFSET_POS - 1UL)))  \
1399:Drivers/STM32G0xx_HAL_Driver/Inc/stm32g0xx_ll_adc.h ****  >> ((__ADC_RESOLUTION_TARGET__) >> (ADC_CFGR1_RES_BITOFFSET_POS - 1UL))     \
1400:Drivers/STM32G0xx_HAL_Driver/Inc/stm32g0xx_ll_adc.h **** )
1401:Drivers/STM32G0xx_HAL_Driver/Inc/stm32g0xx_ll_adc.h **** 
1402:Drivers/STM32G0xx_HAL_Driver/Inc/stm32g0xx_ll_adc.h **** /**
1403:Drivers/STM32G0xx_HAL_Driver/Inc/stm32g0xx_ll_adc.h ****   * @brief  Helper macro to calculate the voltage (unit: mVolt)
1404:Drivers/STM32G0xx_HAL_Driver/Inc/stm32g0xx_ll_adc.h ****   *         corresponding to a ADC conversion data (unit: digital value).
1405:Drivers/STM32G0xx_HAL_Driver/Inc/stm32g0xx_ll_adc.h ****   * @note   Analog reference voltage (Vref+) must be either known from
1406:Drivers/STM32G0xx_HAL_Driver/Inc/stm32g0xx_ll_adc.h ****   *         user board environment or can be calculated using ADC measurement
ARM GAS  /tmp/ccAd34n9.s 			page 29


1407:Drivers/STM32G0xx_HAL_Driver/Inc/stm32g0xx_ll_adc.h ****   *         and ADC helper macro @ref __LL_ADC_CALC_VREFANALOG_VOLTAGE().
1408:Drivers/STM32G0xx_HAL_Driver/Inc/stm32g0xx_ll_adc.h ****   * @param  __VREFANALOG_VOLTAGE__ Analog reference voltage (unit: mV)
1409:Drivers/STM32G0xx_HAL_Driver/Inc/stm32g0xx_ll_adc.h ****   * @param  __ADC_DATA__ ADC conversion data (resolution 12 bits)
1410:Drivers/STM32G0xx_HAL_Driver/Inc/stm32g0xx_ll_adc.h ****   *                       (unit: digital value).
1411:Drivers/STM32G0xx_HAL_Driver/Inc/stm32g0xx_ll_adc.h ****   * @param  __ADC_RESOLUTION__ This parameter can be one of the following values:
1412:Drivers/STM32G0xx_HAL_Driver/Inc/stm32g0xx_ll_adc.h ****   *         @arg @ref LL_ADC_RESOLUTION_12B
1413:Drivers/STM32G0xx_HAL_Driver/Inc/stm32g0xx_ll_adc.h ****   *         @arg @ref LL_ADC_RESOLUTION_10B
1414:Drivers/STM32G0xx_HAL_Driver/Inc/stm32g0xx_ll_adc.h ****   *         @arg @ref LL_ADC_RESOLUTION_8B
1415:Drivers/STM32G0xx_HAL_Driver/Inc/stm32g0xx_ll_adc.h ****   *         @arg @ref LL_ADC_RESOLUTION_6B
1416:Drivers/STM32G0xx_HAL_Driver/Inc/stm32g0xx_ll_adc.h ****   * @retval ADC conversion data equivalent voltage value (unit: mVolt)
1417:Drivers/STM32G0xx_HAL_Driver/Inc/stm32g0xx_ll_adc.h ****   */
1418:Drivers/STM32G0xx_HAL_Driver/Inc/stm32g0xx_ll_adc.h **** #define __LL_ADC_CALC_DATA_TO_VOLTAGE(__VREFANALOG_VOLTAGE__,\
1419:Drivers/STM32G0xx_HAL_Driver/Inc/stm32g0xx_ll_adc.h ****                                       __ADC_DATA__,\
1420:Drivers/STM32G0xx_HAL_Driver/Inc/stm32g0xx_ll_adc.h ****                                       __ADC_RESOLUTION__)                    \
1421:Drivers/STM32G0xx_HAL_Driver/Inc/stm32g0xx_ll_adc.h **** ((__ADC_DATA__) * (__VREFANALOG_VOLTAGE__)                                   \
1422:Drivers/STM32G0xx_HAL_Driver/Inc/stm32g0xx_ll_adc.h ****  / __LL_ADC_DIGITAL_SCALE(__ADC_RESOLUTION__)                                \
1423:Drivers/STM32G0xx_HAL_Driver/Inc/stm32g0xx_ll_adc.h **** )
1424:Drivers/STM32G0xx_HAL_Driver/Inc/stm32g0xx_ll_adc.h **** 
1425:Drivers/STM32G0xx_HAL_Driver/Inc/stm32g0xx_ll_adc.h **** /**
1426:Drivers/STM32G0xx_HAL_Driver/Inc/stm32g0xx_ll_adc.h ****   * @brief  Helper macro to calculate analog reference voltage (Vref+)
1427:Drivers/STM32G0xx_HAL_Driver/Inc/stm32g0xx_ll_adc.h ****   *         (unit: mVolt) from ADC conversion data of internal voltage
1428:Drivers/STM32G0xx_HAL_Driver/Inc/stm32g0xx_ll_adc.h ****   *         reference VrefInt.
1429:Drivers/STM32G0xx_HAL_Driver/Inc/stm32g0xx_ll_adc.h ****   * @note   Computation is using VrefInt calibration value
1430:Drivers/STM32G0xx_HAL_Driver/Inc/stm32g0xx_ll_adc.h ****   *         stored in system memory for each device during production.
1431:Drivers/STM32G0xx_HAL_Driver/Inc/stm32g0xx_ll_adc.h ****   * @note   This voltage depends on user board environment: voltage level
1432:Drivers/STM32G0xx_HAL_Driver/Inc/stm32g0xx_ll_adc.h ****   *         connected to pin Vref+.
1433:Drivers/STM32G0xx_HAL_Driver/Inc/stm32g0xx_ll_adc.h ****   *         On devices with small package, the pin Vref+ is not present
1434:Drivers/STM32G0xx_HAL_Driver/Inc/stm32g0xx_ll_adc.h ****   *         and internally bonded to pin Vdda.
1435:Drivers/STM32G0xx_HAL_Driver/Inc/stm32g0xx_ll_adc.h ****   * @note   On this STM32 series, calibration data of internal voltage reference
1436:Drivers/STM32G0xx_HAL_Driver/Inc/stm32g0xx_ll_adc.h ****   *         VrefInt corresponds to a resolution of 12 bits,
1437:Drivers/STM32G0xx_HAL_Driver/Inc/stm32g0xx_ll_adc.h ****   *         this is the recommended ADC resolution to convert voltage of
1438:Drivers/STM32G0xx_HAL_Driver/Inc/stm32g0xx_ll_adc.h ****   *         internal voltage reference VrefInt.
1439:Drivers/STM32G0xx_HAL_Driver/Inc/stm32g0xx_ll_adc.h ****   *         Otherwise, this macro performs the processing to scale
1440:Drivers/STM32G0xx_HAL_Driver/Inc/stm32g0xx_ll_adc.h ****   *         ADC conversion data to 12 bits.
1441:Drivers/STM32G0xx_HAL_Driver/Inc/stm32g0xx_ll_adc.h ****   * @param  __VREFINT_ADC_DATA__ ADC conversion data (resolution 12 bits)
1442:Drivers/STM32G0xx_HAL_Driver/Inc/stm32g0xx_ll_adc.h ****   *         of internal voltage reference VrefInt (unit: digital value).
1443:Drivers/STM32G0xx_HAL_Driver/Inc/stm32g0xx_ll_adc.h ****   * @param  __ADC_RESOLUTION__ This parameter can be one of the following values:
1444:Drivers/STM32G0xx_HAL_Driver/Inc/stm32g0xx_ll_adc.h ****   *         @arg @ref LL_ADC_RESOLUTION_12B
1445:Drivers/STM32G0xx_HAL_Driver/Inc/stm32g0xx_ll_adc.h ****   *         @arg @ref LL_ADC_RESOLUTION_10B
1446:Drivers/STM32G0xx_HAL_Driver/Inc/stm32g0xx_ll_adc.h ****   *         @arg @ref LL_ADC_RESOLUTION_8B
1447:Drivers/STM32G0xx_HAL_Driver/Inc/stm32g0xx_ll_adc.h ****   *         @arg @ref LL_ADC_RESOLUTION_6B
1448:Drivers/STM32G0xx_HAL_Driver/Inc/stm32g0xx_ll_adc.h ****   * @retval Analog reference voltage (unit: mV)
1449:Drivers/STM32G0xx_HAL_Driver/Inc/stm32g0xx_ll_adc.h ****   */
1450:Drivers/STM32G0xx_HAL_Driver/Inc/stm32g0xx_ll_adc.h **** #define __LL_ADC_CALC_VREFANALOG_VOLTAGE(__VREFINT_ADC_DATA__,\
1451:Drivers/STM32G0xx_HAL_Driver/Inc/stm32g0xx_ll_adc.h ****                                          __ADC_RESOLUTION__)                 \
1452:Drivers/STM32G0xx_HAL_Driver/Inc/stm32g0xx_ll_adc.h **** (((uint32_t)(*VREFINT_CAL_ADDR) * VREFINT_CAL_VREF)                          \
1453:Drivers/STM32G0xx_HAL_Driver/Inc/stm32g0xx_ll_adc.h ****  / __LL_ADC_CONVERT_DATA_RESOLUTION((__VREFINT_ADC_DATA__),                  \
1454:Drivers/STM32G0xx_HAL_Driver/Inc/stm32g0xx_ll_adc.h ****                                     (__ADC_RESOLUTION__),                    \
1455:Drivers/STM32G0xx_HAL_Driver/Inc/stm32g0xx_ll_adc.h ****                                     LL_ADC_RESOLUTION_12B)                   \
1456:Drivers/STM32G0xx_HAL_Driver/Inc/stm32g0xx_ll_adc.h **** )
1457:Drivers/STM32G0xx_HAL_Driver/Inc/stm32g0xx_ll_adc.h **** 
1458:Drivers/STM32G0xx_HAL_Driver/Inc/stm32g0xx_ll_adc.h **** /**
1459:Drivers/STM32G0xx_HAL_Driver/Inc/stm32g0xx_ll_adc.h ****   * @brief  Helper macro to calculate the temperature (unit: degree Celsius)
1460:Drivers/STM32G0xx_HAL_Driver/Inc/stm32g0xx_ll_adc.h ****   *         from ADC conversion data of internal temperature sensor.
1461:Drivers/STM32G0xx_HAL_Driver/Inc/stm32g0xx_ll_adc.h ****   * @note   Computation is using temperature sensor calibration values
1462:Drivers/STM32G0xx_HAL_Driver/Inc/stm32g0xx_ll_adc.h ****   *         stored in system memory for each device during production.
1463:Drivers/STM32G0xx_HAL_Driver/Inc/stm32g0xx_ll_adc.h ****   * @note   Calculation formula:
ARM GAS  /tmp/ccAd34n9.s 			page 30


1464:Drivers/STM32G0xx_HAL_Driver/Inc/stm32g0xx_ll_adc.h ****   *           Temperature = ((TS_ADC_DATA - TS_CAL1)
1465:Drivers/STM32G0xx_HAL_Driver/Inc/stm32g0xx_ll_adc.h ****   *                           * (TS_CAL2_TEMP - TS_CAL1_TEMP))
1466:Drivers/STM32G0xx_HAL_Driver/Inc/stm32g0xx_ll_adc.h ****   *                         / (TS_CAL2 - TS_CAL1) + TS_CAL1_TEMP
1467:Drivers/STM32G0xx_HAL_Driver/Inc/stm32g0xx_ll_adc.h ****   *           with TS_ADC_DATA = temperature sensor raw data measured by ADC
1468:Drivers/STM32G0xx_HAL_Driver/Inc/stm32g0xx_ll_adc.h ****   *                Avg_Slope = (TS_CAL2 - TS_CAL1)
1469:Drivers/STM32G0xx_HAL_Driver/Inc/stm32g0xx_ll_adc.h ****   *                            / (TS_CAL2_TEMP - TS_CAL1_TEMP)
1470:Drivers/STM32G0xx_HAL_Driver/Inc/stm32g0xx_ll_adc.h ****   *                TS_CAL1   = equivalent TS_ADC_DATA at temperature
1471:Drivers/STM32G0xx_HAL_Driver/Inc/stm32g0xx_ll_adc.h ****   *                            TEMP_DEGC_CAL1 (calibrated in factory)
1472:Drivers/STM32G0xx_HAL_Driver/Inc/stm32g0xx_ll_adc.h ****   *                TS_CAL2   = equivalent TS_ADC_DATA at temperature
1473:Drivers/STM32G0xx_HAL_Driver/Inc/stm32g0xx_ll_adc.h ****   *                            TEMP_DEGC_CAL2 (calibrated in factory)
1474:Drivers/STM32G0xx_HAL_Driver/Inc/stm32g0xx_ll_adc.h ****   *         Caution: Calculation relevancy under reserve that calibration
1475:Drivers/STM32G0xx_HAL_Driver/Inc/stm32g0xx_ll_adc.h ****   *                  parameters are correct (address and data).
1476:Drivers/STM32G0xx_HAL_Driver/Inc/stm32g0xx_ll_adc.h ****   *                  To calculate temperature using temperature sensor
1477:Drivers/STM32G0xx_HAL_Driver/Inc/stm32g0xx_ll_adc.h ****   *                  datasheet typical values (generic values less, therefore
1478:Drivers/STM32G0xx_HAL_Driver/Inc/stm32g0xx_ll_adc.h ****   *                  less accurate than calibrated values),
1479:Drivers/STM32G0xx_HAL_Driver/Inc/stm32g0xx_ll_adc.h ****   *                  use helper macro @ref __LL_ADC_CALC_TEMPERATURE_TYP_PARAMS().
1480:Drivers/STM32G0xx_HAL_Driver/Inc/stm32g0xx_ll_adc.h ****   * @note   As calculation input, the analog reference voltage (Vref+) must be
1481:Drivers/STM32G0xx_HAL_Driver/Inc/stm32g0xx_ll_adc.h ****   *         defined as it impacts the ADC LSB equivalent voltage.
1482:Drivers/STM32G0xx_HAL_Driver/Inc/stm32g0xx_ll_adc.h ****   * @note   Analog reference voltage (Vref+) must be either known from
1483:Drivers/STM32G0xx_HAL_Driver/Inc/stm32g0xx_ll_adc.h ****   *         user board environment or can be calculated using ADC measurement
1484:Drivers/STM32G0xx_HAL_Driver/Inc/stm32g0xx_ll_adc.h ****   *         and ADC helper macro @ref __LL_ADC_CALC_VREFANALOG_VOLTAGE().
1485:Drivers/STM32G0xx_HAL_Driver/Inc/stm32g0xx_ll_adc.h ****   * @note   On this STM32 series, calibration data of temperature sensor
1486:Drivers/STM32G0xx_HAL_Driver/Inc/stm32g0xx_ll_adc.h ****   *         corresponds to a resolution of 12 bits,
1487:Drivers/STM32G0xx_HAL_Driver/Inc/stm32g0xx_ll_adc.h ****   *         this is the recommended ADC resolution to convert voltage of
1488:Drivers/STM32G0xx_HAL_Driver/Inc/stm32g0xx_ll_adc.h ****   *         temperature sensor.
1489:Drivers/STM32G0xx_HAL_Driver/Inc/stm32g0xx_ll_adc.h ****   *         Otherwise, this macro performs the processing to scale
1490:Drivers/STM32G0xx_HAL_Driver/Inc/stm32g0xx_ll_adc.h ****   *         ADC conversion data to 12 bits.
1491:Drivers/STM32G0xx_HAL_Driver/Inc/stm32g0xx_ll_adc.h ****   * @param  __VREFANALOG_VOLTAGE__  Analog reference voltage (unit: mV)
1492:Drivers/STM32G0xx_HAL_Driver/Inc/stm32g0xx_ll_adc.h ****   * @param  __TEMPSENSOR_ADC_DATA__ ADC conversion data of internal
1493:Drivers/STM32G0xx_HAL_Driver/Inc/stm32g0xx_ll_adc.h ****   *                                 temperature sensor (unit: digital value).
1494:Drivers/STM32G0xx_HAL_Driver/Inc/stm32g0xx_ll_adc.h ****   * @param  __ADC_RESOLUTION__      ADC resolution at which internal temperature
1495:Drivers/STM32G0xx_HAL_Driver/Inc/stm32g0xx_ll_adc.h ****   *                                 sensor voltage has been measured.
1496:Drivers/STM32G0xx_HAL_Driver/Inc/stm32g0xx_ll_adc.h ****   *         This parameter can be one of the following values:
1497:Drivers/STM32G0xx_HAL_Driver/Inc/stm32g0xx_ll_adc.h ****   *         @arg @ref LL_ADC_RESOLUTION_12B
1498:Drivers/STM32G0xx_HAL_Driver/Inc/stm32g0xx_ll_adc.h ****   *         @arg @ref LL_ADC_RESOLUTION_10B
1499:Drivers/STM32G0xx_HAL_Driver/Inc/stm32g0xx_ll_adc.h ****   *         @arg @ref LL_ADC_RESOLUTION_8B
1500:Drivers/STM32G0xx_HAL_Driver/Inc/stm32g0xx_ll_adc.h ****   *         @arg @ref LL_ADC_RESOLUTION_6B
1501:Drivers/STM32G0xx_HAL_Driver/Inc/stm32g0xx_ll_adc.h ****   * @retval Temperature (unit: degree Celsius)
1502:Drivers/STM32G0xx_HAL_Driver/Inc/stm32g0xx_ll_adc.h ****   *         In case or error, value LL_ADC_TEMPERATURE_CALC_ERROR is returned (inconsistent tempera
1503:Drivers/STM32G0xx_HAL_Driver/Inc/stm32g0xx_ll_adc.h ****   */
1504:Drivers/STM32G0xx_HAL_Driver/Inc/stm32g0xx_ll_adc.h **** #define __LL_ADC_CALC_TEMPERATURE(__VREFANALOG_VOLTAGE__,\
1505:Drivers/STM32G0xx_HAL_Driver/Inc/stm32g0xx_ll_adc.h ****                                   __TEMPSENSOR_ADC_DATA__,\
1506:Drivers/STM32G0xx_HAL_Driver/Inc/stm32g0xx_ll_adc.h ****                                   __ADC_RESOLUTION__)\
1507:Drivers/STM32G0xx_HAL_Driver/Inc/stm32g0xx_ll_adc.h **** ((((int32_t)*TEMPSENSOR_CAL2_ADDR - (int32_t)*TEMPSENSOR_CAL1_ADDR) != 0) ?        \
1508:Drivers/STM32G0xx_HAL_Driver/Inc/stm32g0xx_ll_adc.h ****   (((( ((int32_t)((__LL_ADC_CONVERT_DATA_RESOLUTION((__TEMPSENSOR_ADC_DATA__),     \
1509:Drivers/STM32G0xx_HAL_Driver/Inc/stm32g0xx_ll_adc.h ****                                                     (__ADC_RESOLUTION__),          \
1510:Drivers/STM32G0xx_HAL_Driver/Inc/stm32g0xx_ll_adc.h ****                                                     LL_ADC_RESOLUTION_12B)         \
1511:Drivers/STM32G0xx_HAL_Driver/Inc/stm32g0xx_ll_adc.h ****                    * (__VREFANALOG_VOLTAGE__))                                     \
1512:Drivers/STM32G0xx_HAL_Driver/Inc/stm32g0xx_ll_adc.h ****                   / TEMPSENSOR_CAL_VREFANALOG)                                     \
1513:Drivers/STM32G0xx_HAL_Driver/Inc/stm32g0xx_ll_adc.h ****         - (int32_t) *TEMPSENSOR_CAL1_ADDR)                                         \
1514:Drivers/STM32G0xx_HAL_Driver/Inc/stm32g0xx_ll_adc.h ****      ) * (int32_t)(TEMPSENSOR_CAL2_TEMP - TEMPSENSOR_CAL1_TEMP)                    \
1515:Drivers/STM32G0xx_HAL_Driver/Inc/stm32g0xx_ll_adc.h ****     ) / (int32_t)((int32_t)*TEMPSENSOR_CAL2_ADDR - (int32_t)*TEMPSENSOR_CAL1_ADDR) \
1516:Drivers/STM32G0xx_HAL_Driver/Inc/stm32g0xx_ll_adc.h ****    ) + TEMPSENSOR_CAL1_TEMP                                                        \
1517:Drivers/STM32G0xx_HAL_Driver/Inc/stm32g0xx_ll_adc.h ****   )                                                                                \
1518:Drivers/STM32G0xx_HAL_Driver/Inc/stm32g0xx_ll_adc.h ****   :                                                                                \
1519:Drivers/STM32G0xx_HAL_Driver/Inc/stm32g0xx_ll_adc.h ****   ((int32_t)LL_ADC_TEMPERATURE_CALC_ERROR)                                         \
1520:Drivers/STM32G0xx_HAL_Driver/Inc/stm32g0xx_ll_adc.h **** )
ARM GAS  /tmp/ccAd34n9.s 			page 31


1521:Drivers/STM32G0xx_HAL_Driver/Inc/stm32g0xx_ll_adc.h **** 
1522:Drivers/STM32G0xx_HAL_Driver/Inc/stm32g0xx_ll_adc.h **** /**
1523:Drivers/STM32G0xx_HAL_Driver/Inc/stm32g0xx_ll_adc.h ****   * @brief  Helper macro to calculate the temperature (unit: degree Celsius)
1524:Drivers/STM32G0xx_HAL_Driver/Inc/stm32g0xx_ll_adc.h ****   *         from ADC conversion data of internal temperature sensor.
1525:Drivers/STM32G0xx_HAL_Driver/Inc/stm32g0xx_ll_adc.h ****   * @note   Computation is using temperature sensor typical values
1526:Drivers/STM32G0xx_HAL_Driver/Inc/stm32g0xx_ll_adc.h ****   *         (refer to device datasheet).
1527:Drivers/STM32G0xx_HAL_Driver/Inc/stm32g0xx_ll_adc.h ****   * @note   Calculation formula:
1528:Drivers/STM32G0xx_HAL_Driver/Inc/stm32g0xx_ll_adc.h ****   *           Temperature = (TS_TYP_CALx_VOLT(uV) - TS_ADC_DATA * Conversion_uV)
1529:Drivers/STM32G0xx_HAL_Driver/Inc/stm32g0xx_ll_adc.h ****   *                         / Avg_Slope + CALx_TEMP
1530:Drivers/STM32G0xx_HAL_Driver/Inc/stm32g0xx_ll_adc.h ****   *           with TS_ADC_DATA      = temperature sensor raw data measured by ADC
1531:Drivers/STM32G0xx_HAL_Driver/Inc/stm32g0xx_ll_adc.h ****   *                                   (unit: digital value)
1532:Drivers/STM32G0xx_HAL_Driver/Inc/stm32g0xx_ll_adc.h ****   *                Avg_Slope        = temperature sensor slope
1533:Drivers/STM32G0xx_HAL_Driver/Inc/stm32g0xx_ll_adc.h ****   *                                   (unit: uV/Degree Celsius)
1534:Drivers/STM32G0xx_HAL_Driver/Inc/stm32g0xx_ll_adc.h ****   *                TS_TYP_CALx_VOLT = temperature sensor digital value at
1535:Drivers/STM32G0xx_HAL_Driver/Inc/stm32g0xx_ll_adc.h ****   *                                   temperature CALx_TEMP (unit: mV)
1536:Drivers/STM32G0xx_HAL_Driver/Inc/stm32g0xx_ll_adc.h ****   *         Caution: Calculation relevancy under reserve the temperature sensor
1537:Drivers/STM32G0xx_HAL_Driver/Inc/stm32g0xx_ll_adc.h ****   *                  of the current device has characteristics in line with
1538:Drivers/STM32G0xx_HAL_Driver/Inc/stm32g0xx_ll_adc.h ****   *                  datasheet typical values.
1539:Drivers/STM32G0xx_HAL_Driver/Inc/stm32g0xx_ll_adc.h ****   *                  If temperature sensor calibration values are available on
1540:Drivers/STM32G0xx_HAL_Driver/Inc/stm32g0xx_ll_adc.h ****   *                  on this device (presence of macro __LL_ADC_CALC_TEMPERATURE()),
1541:Drivers/STM32G0xx_HAL_Driver/Inc/stm32g0xx_ll_adc.h ****   *                  temperature calculation will be more accurate using
1542:Drivers/STM32G0xx_HAL_Driver/Inc/stm32g0xx_ll_adc.h ****   *                  helper macro @ref __LL_ADC_CALC_TEMPERATURE().
1543:Drivers/STM32G0xx_HAL_Driver/Inc/stm32g0xx_ll_adc.h ****   * @note   As calculation input, the analog reference voltage (Vref+) must be
1544:Drivers/STM32G0xx_HAL_Driver/Inc/stm32g0xx_ll_adc.h ****   *         defined as it impacts the ADC LSB equivalent voltage.
1545:Drivers/STM32G0xx_HAL_Driver/Inc/stm32g0xx_ll_adc.h ****   * @note   Analog reference voltage (Vref+) must be either known from
1546:Drivers/STM32G0xx_HAL_Driver/Inc/stm32g0xx_ll_adc.h ****   *         user board environment or can be calculated using ADC measurement
1547:Drivers/STM32G0xx_HAL_Driver/Inc/stm32g0xx_ll_adc.h ****   *         and ADC helper macro @ref __LL_ADC_CALC_VREFANALOG_VOLTAGE().
1548:Drivers/STM32G0xx_HAL_Driver/Inc/stm32g0xx_ll_adc.h ****   * @note   ADC measurement data must correspond to a resolution of 12 bits
1549:Drivers/STM32G0xx_HAL_Driver/Inc/stm32g0xx_ll_adc.h ****   *         (full scale digital value 4095). If not the case, the data must be
1550:Drivers/STM32G0xx_HAL_Driver/Inc/stm32g0xx_ll_adc.h ****   *         preliminarily rescaled to an equivalent resolution of 12 bits.
1551:Drivers/STM32G0xx_HAL_Driver/Inc/stm32g0xx_ll_adc.h ****   * @param  __TEMPSENSOR_TYP_AVGSLOPE__   Device datasheet data: Temperature sensor slope typical v
1552:Drivers/STM32G0xx_HAL_Driver/Inc/stm32g0xx_ll_adc.h ****   *                                       On STM32G0, refer to device datasheet parameter "Avg_Slop
1553:Drivers/STM32G0xx_HAL_Driver/Inc/stm32g0xx_ll_adc.h ****   * @param  __TEMPSENSOR_TYP_CALX_V__     Device datasheet data: Temperature sensor voltage typical
1554:Drivers/STM32G0xx_HAL_Driver/Inc/stm32g0xx_ll_adc.h ****   *                                       On STM32G0, refer to device datasheet parameter "V30" (co
1555:Drivers/STM32G0xx_HAL_Driver/Inc/stm32g0xx_ll_adc.h ****   * @param  __TEMPSENSOR_CALX_TEMP__      Device datasheet data: Temperature at which temperature s
1556:Drivers/STM32G0xx_HAL_Driver/Inc/stm32g0xx_ll_adc.h ****   * @param  __VREFANALOG_VOLTAGE__        Analog voltage reference (Vref+) voltage (unit: mV)
1557:Drivers/STM32G0xx_HAL_Driver/Inc/stm32g0xx_ll_adc.h ****   * @param  __TEMPSENSOR_ADC_DATA__       ADC conversion data of internal temperature sensor (unit:
1558:Drivers/STM32G0xx_HAL_Driver/Inc/stm32g0xx_ll_adc.h ****   * @param  __ADC_RESOLUTION__            ADC resolution at which internal temperature sensor volta
1559:Drivers/STM32G0xx_HAL_Driver/Inc/stm32g0xx_ll_adc.h ****   *         This parameter can be one of the following values:
1560:Drivers/STM32G0xx_HAL_Driver/Inc/stm32g0xx_ll_adc.h ****   *         @arg @ref LL_ADC_RESOLUTION_12B
1561:Drivers/STM32G0xx_HAL_Driver/Inc/stm32g0xx_ll_adc.h ****   *         @arg @ref LL_ADC_RESOLUTION_10B
1562:Drivers/STM32G0xx_HAL_Driver/Inc/stm32g0xx_ll_adc.h ****   *         @arg @ref LL_ADC_RESOLUTION_8B
1563:Drivers/STM32G0xx_HAL_Driver/Inc/stm32g0xx_ll_adc.h ****   *         @arg @ref LL_ADC_RESOLUTION_6B
1564:Drivers/STM32G0xx_HAL_Driver/Inc/stm32g0xx_ll_adc.h ****   * @retval Temperature (unit: degree Celsius)
1565:Drivers/STM32G0xx_HAL_Driver/Inc/stm32g0xx_ll_adc.h ****   */
1566:Drivers/STM32G0xx_HAL_Driver/Inc/stm32g0xx_ll_adc.h **** #define __LL_ADC_CALC_TEMPERATURE_TYP_PARAMS(__TEMPSENSOR_TYP_AVGSLOPE__,\
1567:Drivers/STM32G0xx_HAL_Driver/Inc/stm32g0xx_ll_adc.h ****                                              __TEMPSENSOR_TYP_CALX_V__,\
1568:Drivers/STM32G0xx_HAL_Driver/Inc/stm32g0xx_ll_adc.h ****                                              __TEMPSENSOR_CALX_TEMP__,\
1569:Drivers/STM32G0xx_HAL_Driver/Inc/stm32g0xx_ll_adc.h ****                                              __VREFANALOG_VOLTAGE__,\
1570:Drivers/STM32G0xx_HAL_Driver/Inc/stm32g0xx_ll_adc.h ****                                              __TEMPSENSOR_ADC_DATA__,\
1571:Drivers/STM32G0xx_HAL_Driver/Inc/stm32g0xx_ll_adc.h ****                                              __ADC_RESOLUTION__)            \
1572:Drivers/STM32G0xx_HAL_Driver/Inc/stm32g0xx_ll_adc.h **** (((((int32_t)((((__TEMPSENSOR_ADC_DATA__) * (__VREFANALOG_VOLTAGE__))       \
1573:Drivers/STM32G0xx_HAL_Driver/Inc/stm32g0xx_ll_adc.h ****                / __LL_ADC_DIGITAL_SCALE(__ADC_RESOLUTION__))                \
1574:Drivers/STM32G0xx_HAL_Driver/Inc/stm32g0xx_ll_adc.h ****               * 1000UL)                                                     \
1575:Drivers/STM32G0xx_HAL_Driver/Inc/stm32g0xx_ll_adc.h ****     -                                                                       \
1576:Drivers/STM32G0xx_HAL_Driver/Inc/stm32g0xx_ll_adc.h ****     (int32_t)(((__TEMPSENSOR_TYP_CALX_V__))                                 \
1577:Drivers/STM32G0xx_HAL_Driver/Inc/stm32g0xx_ll_adc.h ****               * 1000UL)                                                     \
ARM GAS  /tmp/ccAd34n9.s 			page 32


1578:Drivers/STM32G0xx_HAL_Driver/Inc/stm32g0xx_ll_adc.h ****    )                                                                        \
1579:Drivers/STM32G0xx_HAL_Driver/Inc/stm32g0xx_ll_adc.h ****   ) / (int32_t)(__TEMPSENSOR_TYP_AVGSLOPE__)                                \
1580:Drivers/STM32G0xx_HAL_Driver/Inc/stm32g0xx_ll_adc.h ****  ) + (int32_t)(__TEMPSENSOR_CALX_TEMP__)                                    \
1581:Drivers/STM32G0xx_HAL_Driver/Inc/stm32g0xx_ll_adc.h **** )
1582:Drivers/STM32G0xx_HAL_Driver/Inc/stm32g0xx_ll_adc.h **** 
1583:Drivers/STM32G0xx_HAL_Driver/Inc/stm32g0xx_ll_adc.h **** /**
1584:Drivers/STM32G0xx_HAL_Driver/Inc/stm32g0xx_ll_adc.h ****   * @}
1585:Drivers/STM32G0xx_HAL_Driver/Inc/stm32g0xx_ll_adc.h ****   */
1586:Drivers/STM32G0xx_HAL_Driver/Inc/stm32g0xx_ll_adc.h **** 
1587:Drivers/STM32G0xx_HAL_Driver/Inc/stm32g0xx_ll_adc.h **** /**
1588:Drivers/STM32G0xx_HAL_Driver/Inc/stm32g0xx_ll_adc.h ****   * @}
1589:Drivers/STM32G0xx_HAL_Driver/Inc/stm32g0xx_ll_adc.h ****   */
1590:Drivers/STM32G0xx_HAL_Driver/Inc/stm32g0xx_ll_adc.h **** 
1591:Drivers/STM32G0xx_HAL_Driver/Inc/stm32g0xx_ll_adc.h **** 
1592:Drivers/STM32G0xx_HAL_Driver/Inc/stm32g0xx_ll_adc.h **** /* Exported functions --------------------------------------------------------*/
1593:Drivers/STM32G0xx_HAL_Driver/Inc/stm32g0xx_ll_adc.h **** /** @defgroup ADC_LL_Exported_Functions ADC Exported Functions
1594:Drivers/STM32G0xx_HAL_Driver/Inc/stm32g0xx_ll_adc.h ****   * @{
1595:Drivers/STM32G0xx_HAL_Driver/Inc/stm32g0xx_ll_adc.h ****   */
1596:Drivers/STM32G0xx_HAL_Driver/Inc/stm32g0xx_ll_adc.h **** 
1597:Drivers/STM32G0xx_HAL_Driver/Inc/stm32g0xx_ll_adc.h **** /** @defgroup ADC_LL_EF_DMA_Management ADC DMA management
1598:Drivers/STM32G0xx_HAL_Driver/Inc/stm32g0xx_ll_adc.h ****   * @{
1599:Drivers/STM32G0xx_HAL_Driver/Inc/stm32g0xx_ll_adc.h ****   */
1600:Drivers/STM32G0xx_HAL_Driver/Inc/stm32g0xx_ll_adc.h **** /* Note: LL ADC functions to set DMA transfer are located into sections of    */
1601:Drivers/STM32G0xx_HAL_Driver/Inc/stm32g0xx_ll_adc.h **** /*       configuration of ADC instance, groups and multimode (if available):  */
1602:Drivers/STM32G0xx_HAL_Driver/Inc/stm32g0xx_ll_adc.h **** /*       @ref LL_ADC_REG_SetDMATransfer(), ...                                */
1603:Drivers/STM32G0xx_HAL_Driver/Inc/stm32g0xx_ll_adc.h **** 
1604:Drivers/STM32G0xx_HAL_Driver/Inc/stm32g0xx_ll_adc.h **** /**
1605:Drivers/STM32G0xx_HAL_Driver/Inc/stm32g0xx_ll_adc.h ****   * @brief  Function to help to configure DMA transfer from ADC: retrieve the
1606:Drivers/STM32G0xx_HAL_Driver/Inc/stm32g0xx_ll_adc.h ****   *         ADC register address from ADC instance and a list of ADC registers
1607:Drivers/STM32G0xx_HAL_Driver/Inc/stm32g0xx_ll_adc.h ****   *         intended to be used (most commonly) with DMA transfer.
1608:Drivers/STM32G0xx_HAL_Driver/Inc/stm32g0xx_ll_adc.h ****   * @note   These ADC registers are data registers:
1609:Drivers/STM32G0xx_HAL_Driver/Inc/stm32g0xx_ll_adc.h ****   *         when ADC conversion data is available in ADC data registers,
1610:Drivers/STM32G0xx_HAL_Driver/Inc/stm32g0xx_ll_adc.h ****   *         ADC generates a DMA transfer request.
1611:Drivers/STM32G0xx_HAL_Driver/Inc/stm32g0xx_ll_adc.h ****   * @note   This macro is intended to be used with LL DMA driver, refer to
1612:Drivers/STM32G0xx_HAL_Driver/Inc/stm32g0xx_ll_adc.h ****   *         function "LL_DMA_ConfigAddresses()".
1613:Drivers/STM32G0xx_HAL_Driver/Inc/stm32g0xx_ll_adc.h ****   *         Example:
1614:Drivers/STM32G0xx_HAL_Driver/Inc/stm32g0xx_ll_adc.h ****   *           LL_DMA_ConfigAddresses(DMA1,
1615:Drivers/STM32G0xx_HAL_Driver/Inc/stm32g0xx_ll_adc.h ****   *                                  LL_DMA_CHANNEL_1,
1616:Drivers/STM32G0xx_HAL_Driver/Inc/stm32g0xx_ll_adc.h ****   *                                  LL_ADC_DMA_GetRegAddr(ADC1, LL_ADC_DMA_REG_REGULAR_DATA),
1617:Drivers/STM32G0xx_HAL_Driver/Inc/stm32g0xx_ll_adc.h ****   *                                  (uint32_t)&< array or variable >,
1618:Drivers/STM32G0xx_HAL_Driver/Inc/stm32g0xx_ll_adc.h ****   *                                  LL_DMA_DIRECTION_PERIPH_TO_MEMORY);
1619:Drivers/STM32G0xx_HAL_Driver/Inc/stm32g0xx_ll_adc.h ****   * @note   For devices with several ADC: in multimode, some devices
1620:Drivers/STM32G0xx_HAL_Driver/Inc/stm32g0xx_ll_adc.h ****   *         use a different data register outside of ADC instance scope
1621:Drivers/STM32G0xx_HAL_Driver/Inc/stm32g0xx_ll_adc.h ****   *         (common data register). This macro manages this register difference,
1622:Drivers/STM32G0xx_HAL_Driver/Inc/stm32g0xx_ll_adc.h ****   *         only ADC instance has to be set as parameter.
1623:Drivers/STM32G0xx_HAL_Driver/Inc/stm32g0xx_ll_adc.h ****   * @rmtoll DR       DATA           LL_ADC_DMA_GetRegAddr
1624:Drivers/STM32G0xx_HAL_Driver/Inc/stm32g0xx_ll_adc.h ****   * @param  ADCx ADC instance
1625:Drivers/STM32G0xx_HAL_Driver/Inc/stm32g0xx_ll_adc.h ****   * @param  Register This parameter can be one of the following values:
1626:Drivers/STM32G0xx_HAL_Driver/Inc/stm32g0xx_ll_adc.h ****   *         @arg @ref LL_ADC_DMA_REG_REGULAR_DATA
1627:Drivers/STM32G0xx_HAL_Driver/Inc/stm32g0xx_ll_adc.h ****   * @retval ADC register address
1628:Drivers/STM32G0xx_HAL_Driver/Inc/stm32g0xx_ll_adc.h ****   */
1629:Drivers/STM32G0xx_HAL_Driver/Inc/stm32g0xx_ll_adc.h **** __STATIC_INLINE uint32_t LL_ADC_DMA_GetRegAddr(ADC_TypeDef *ADCx, uint32_t Register)
1630:Drivers/STM32G0xx_HAL_Driver/Inc/stm32g0xx_ll_adc.h **** {
1631:Drivers/STM32G0xx_HAL_Driver/Inc/stm32g0xx_ll_adc.h ****   /* Prevent unused argument(s) compilation warning */
1632:Drivers/STM32G0xx_HAL_Driver/Inc/stm32g0xx_ll_adc.h ****   (void)(Register);
1633:Drivers/STM32G0xx_HAL_Driver/Inc/stm32g0xx_ll_adc.h **** 
1634:Drivers/STM32G0xx_HAL_Driver/Inc/stm32g0xx_ll_adc.h ****   /* Retrieve address of register DR */
ARM GAS  /tmp/ccAd34n9.s 			page 33


1635:Drivers/STM32G0xx_HAL_Driver/Inc/stm32g0xx_ll_adc.h ****   return (uint32_t) &(ADCx->DR);
1636:Drivers/STM32G0xx_HAL_Driver/Inc/stm32g0xx_ll_adc.h **** }
1637:Drivers/STM32G0xx_HAL_Driver/Inc/stm32g0xx_ll_adc.h **** 
1638:Drivers/STM32G0xx_HAL_Driver/Inc/stm32g0xx_ll_adc.h **** /**
1639:Drivers/STM32G0xx_HAL_Driver/Inc/stm32g0xx_ll_adc.h ****   * @}
1640:Drivers/STM32G0xx_HAL_Driver/Inc/stm32g0xx_ll_adc.h ****   */
1641:Drivers/STM32G0xx_HAL_Driver/Inc/stm32g0xx_ll_adc.h **** 
1642:Drivers/STM32G0xx_HAL_Driver/Inc/stm32g0xx_ll_adc.h **** /** @defgroup ADC_LL_EF_Configuration_ADC_Common Configuration of ADC hierarchical scope: common to
1643:Drivers/STM32G0xx_HAL_Driver/Inc/stm32g0xx_ll_adc.h ****   * @{
1644:Drivers/STM32G0xx_HAL_Driver/Inc/stm32g0xx_ll_adc.h ****   */
1645:Drivers/STM32G0xx_HAL_Driver/Inc/stm32g0xx_ll_adc.h **** 
1646:Drivers/STM32G0xx_HAL_Driver/Inc/stm32g0xx_ll_adc.h **** /**
1647:Drivers/STM32G0xx_HAL_Driver/Inc/stm32g0xx_ll_adc.h ****   * @brief  Set parameter common to several ADC: Clock source and prescaler.
1648:Drivers/STM32G0xx_HAL_Driver/Inc/stm32g0xx_ll_adc.h ****   * @note   On this STM32 series, setting of this feature is conditioned to
1649:Drivers/STM32G0xx_HAL_Driver/Inc/stm32g0xx_ll_adc.h ****   *         ADC state:
1650:Drivers/STM32G0xx_HAL_Driver/Inc/stm32g0xx_ll_adc.h ****   *         All ADC instances of the ADC common group must be disabled.
1651:Drivers/STM32G0xx_HAL_Driver/Inc/stm32g0xx_ll_adc.h ****   *         This check can be done with function @ref LL_ADC_IsEnabled() for each
1652:Drivers/STM32G0xx_HAL_Driver/Inc/stm32g0xx_ll_adc.h ****   *         ADC instance or by using helper macro helper macro
1653:Drivers/STM32G0xx_HAL_Driver/Inc/stm32g0xx_ll_adc.h ****   *         @ref __LL_ADC_IS_ENABLED_ALL_COMMON_INSTANCE().
1654:Drivers/STM32G0xx_HAL_Driver/Inc/stm32g0xx_ll_adc.h ****   * @rmtoll CCR      PRESC          LL_ADC_SetCommonClock
1655:Drivers/STM32G0xx_HAL_Driver/Inc/stm32g0xx_ll_adc.h ****   * @param  ADCxy_COMMON ADC common instance
1656:Drivers/STM32G0xx_HAL_Driver/Inc/stm32g0xx_ll_adc.h ****   *         (can be set directly from CMSIS definition or by using helper macro @ref __LL_ADC_COMMO
1657:Drivers/STM32G0xx_HAL_Driver/Inc/stm32g0xx_ll_adc.h ****   * @param  CommonClock This parameter can be one of the following values:
1658:Drivers/STM32G0xx_HAL_Driver/Inc/stm32g0xx_ll_adc.h ****   *         @arg @ref LL_ADC_CLOCK_ASYNC_DIV1   (1)
1659:Drivers/STM32G0xx_HAL_Driver/Inc/stm32g0xx_ll_adc.h ****   *         @arg @ref LL_ADC_CLOCK_ASYNC_DIV2   (1)
1660:Drivers/STM32G0xx_HAL_Driver/Inc/stm32g0xx_ll_adc.h ****   *         @arg @ref LL_ADC_CLOCK_ASYNC_DIV4   (1)
1661:Drivers/STM32G0xx_HAL_Driver/Inc/stm32g0xx_ll_adc.h ****   *         @arg @ref LL_ADC_CLOCK_ASYNC_DIV6   (1)
1662:Drivers/STM32G0xx_HAL_Driver/Inc/stm32g0xx_ll_adc.h ****   *         @arg @ref LL_ADC_CLOCK_ASYNC_DIV8   (1)
1663:Drivers/STM32G0xx_HAL_Driver/Inc/stm32g0xx_ll_adc.h ****   *         @arg @ref LL_ADC_CLOCK_ASYNC_DIV10  (1)
1664:Drivers/STM32G0xx_HAL_Driver/Inc/stm32g0xx_ll_adc.h ****   *         @arg @ref LL_ADC_CLOCK_ASYNC_DIV12  (1)
1665:Drivers/STM32G0xx_HAL_Driver/Inc/stm32g0xx_ll_adc.h ****   *         @arg @ref LL_ADC_CLOCK_ASYNC_DIV16  (1)
1666:Drivers/STM32G0xx_HAL_Driver/Inc/stm32g0xx_ll_adc.h ****   *         @arg @ref LL_ADC_CLOCK_ASYNC_DIV32  (1)
1667:Drivers/STM32G0xx_HAL_Driver/Inc/stm32g0xx_ll_adc.h ****   *         @arg @ref LL_ADC_CLOCK_ASYNC_DIV64  (1)
1668:Drivers/STM32G0xx_HAL_Driver/Inc/stm32g0xx_ll_adc.h ****   *         @arg @ref LL_ADC_CLOCK_ASYNC_DIV128 (1)
1669:Drivers/STM32G0xx_HAL_Driver/Inc/stm32g0xx_ll_adc.h ****   *         @arg @ref LL_ADC_CLOCK_ASYNC_DIV256 (1)
1670:Drivers/STM32G0xx_HAL_Driver/Inc/stm32g0xx_ll_adc.h ****   *
1671:Drivers/STM32G0xx_HAL_Driver/Inc/stm32g0xx_ll_adc.h ****   *         (1) ADC common clock asynchronous prescaler is applied to
1672:Drivers/STM32G0xx_HAL_Driver/Inc/stm32g0xx_ll_adc.h ****   *             each ADC instance if the corresponding ADC instance clock
1673:Drivers/STM32G0xx_HAL_Driver/Inc/stm32g0xx_ll_adc.h ****   *             is set to clock source asynchronous.
1674:Drivers/STM32G0xx_HAL_Driver/Inc/stm32g0xx_ll_adc.h ****   *             (refer to function @ref LL_ADC_SetClock() ).
1675:Drivers/STM32G0xx_HAL_Driver/Inc/stm32g0xx_ll_adc.h ****   * @retval None
1676:Drivers/STM32G0xx_HAL_Driver/Inc/stm32g0xx_ll_adc.h ****   */
1677:Drivers/STM32G0xx_HAL_Driver/Inc/stm32g0xx_ll_adc.h **** __STATIC_INLINE void LL_ADC_SetCommonClock(ADC_Common_TypeDef *ADCxy_COMMON, uint32_t CommonClock)
1678:Drivers/STM32G0xx_HAL_Driver/Inc/stm32g0xx_ll_adc.h **** {
1679:Drivers/STM32G0xx_HAL_Driver/Inc/stm32g0xx_ll_adc.h ****   MODIFY_REG(ADCxy_COMMON->CCR, ADC_CCR_PRESC, CommonClock);
1680:Drivers/STM32G0xx_HAL_Driver/Inc/stm32g0xx_ll_adc.h **** }
1681:Drivers/STM32G0xx_HAL_Driver/Inc/stm32g0xx_ll_adc.h **** 
1682:Drivers/STM32G0xx_HAL_Driver/Inc/stm32g0xx_ll_adc.h **** /**
1683:Drivers/STM32G0xx_HAL_Driver/Inc/stm32g0xx_ll_adc.h ****   * @brief  Get parameter common to several ADC: Clock source and prescaler.
1684:Drivers/STM32G0xx_HAL_Driver/Inc/stm32g0xx_ll_adc.h ****   * @rmtoll CCR      PRESC          LL_ADC_GetCommonClock
1685:Drivers/STM32G0xx_HAL_Driver/Inc/stm32g0xx_ll_adc.h ****   * @param  ADCxy_COMMON ADC common instance
1686:Drivers/STM32G0xx_HAL_Driver/Inc/stm32g0xx_ll_adc.h ****   *         (can be set directly from CMSIS definition or by using helper macro @ref __LL_ADC_COMMO
1687:Drivers/STM32G0xx_HAL_Driver/Inc/stm32g0xx_ll_adc.h ****   * @retval Returned value can be one of the following values:
1688:Drivers/STM32G0xx_HAL_Driver/Inc/stm32g0xx_ll_adc.h ****   *         @arg @ref LL_ADC_CLOCK_ASYNC_DIV1   (1)
1689:Drivers/STM32G0xx_HAL_Driver/Inc/stm32g0xx_ll_adc.h ****   *         @arg @ref LL_ADC_CLOCK_ASYNC_DIV2   (1)
1690:Drivers/STM32G0xx_HAL_Driver/Inc/stm32g0xx_ll_adc.h ****   *         @arg @ref LL_ADC_CLOCK_ASYNC_DIV4   (1)
1691:Drivers/STM32G0xx_HAL_Driver/Inc/stm32g0xx_ll_adc.h ****   *         @arg @ref LL_ADC_CLOCK_ASYNC_DIV6   (1)
ARM GAS  /tmp/ccAd34n9.s 			page 34


1692:Drivers/STM32G0xx_HAL_Driver/Inc/stm32g0xx_ll_adc.h ****   *         @arg @ref LL_ADC_CLOCK_ASYNC_DIV8   (1)
1693:Drivers/STM32G0xx_HAL_Driver/Inc/stm32g0xx_ll_adc.h ****   *         @arg @ref LL_ADC_CLOCK_ASYNC_DIV10  (1)
1694:Drivers/STM32G0xx_HAL_Driver/Inc/stm32g0xx_ll_adc.h ****   *         @arg @ref LL_ADC_CLOCK_ASYNC_DIV12  (1)
1695:Drivers/STM32G0xx_HAL_Driver/Inc/stm32g0xx_ll_adc.h ****   *         @arg @ref LL_ADC_CLOCK_ASYNC_DIV16  (1)
1696:Drivers/STM32G0xx_HAL_Driver/Inc/stm32g0xx_ll_adc.h ****   *         @arg @ref LL_ADC_CLOCK_ASYNC_DIV32  (1)
1697:Drivers/STM32G0xx_HAL_Driver/Inc/stm32g0xx_ll_adc.h ****   *         @arg @ref LL_ADC_CLOCK_ASYNC_DIV64  (1)
1698:Drivers/STM32G0xx_HAL_Driver/Inc/stm32g0xx_ll_adc.h ****   *         @arg @ref LL_ADC_CLOCK_ASYNC_DIV128 (1)
1699:Drivers/STM32G0xx_HAL_Driver/Inc/stm32g0xx_ll_adc.h ****   *         @arg @ref LL_ADC_CLOCK_ASYNC_DIV256 (1)
1700:Drivers/STM32G0xx_HAL_Driver/Inc/stm32g0xx_ll_adc.h ****   *
1701:Drivers/STM32G0xx_HAL_Driver/Inc/stm32g0xx_ll_adc.h ****   *         (1) ADC common clock asynchronous prescaler is applied to
1702:Drivers/STM32G0xx_HAL_Driver/Inc/stm32g0xx_ll_adc.h ****   *             each ADC instance if the corresponding ADC instance clock
1703:Drivers/STM32G0xx_HAL_Driver/Inc/stm32g0xx_ll_adc.h ****   *             is set to clock source asynchronous.
1704:Drivers/STM32G0xx_HAL_Driver/Inc/stm32g0xx_ll_adc.h ****   *             (refer to function @ref LL_ADC_SetClock() ).
1705:Drivers/STM32G0xx_HAL_Driver/Inc/stm32g0xx_ll_adc.h ****   */
1706:Drivers/STM32G0xx_HAL_Driver/Inc/stm32g0xx_ll_adc.h **** __STATIC_INLINE uint32_t LL_ADC_GetCommonClock(ADC_Common_TypeDef *ADCxy_COMMON)
1707:Drivers/STM32G0xx_HAL_Driver/Inc/stm32g0xx_ll_adc.h **** {
1708:Drivers/STM32G0xx_HAL_Driver/Inc/stm32g0xx_ll_adc.h ****   return (uint32_t)(READ_BIT(ADCxy_COMMON->CCR, ADC_CCR_PRESC));
1709:Drivers/STM32G0xx_HAL_Driver/Inc/stm32g0xx_ll_adc.h **** }
1710:Drivers/STM32G0xx_HAL_Driver/Inc/stm32g0xx_ll_adc.h **** 
1711:Drivers/STM32G0xx_HAL_Driver/Inc/stm32g0xx_ll_adc.h **** /**
1712:Drivers/STM32G0xx_HAL_Driver/Inc/stm32g0xx_ll_adc.h ****   * @brief  Legacy feature, useless on STM32G0 (ADC common clock low frequency
1713:Drivers/STM32G0xx_HAL_Driver/Inc/stm32g0xx_ll_adc.h ****             mode is automatically managed by ADC peripheral on STM32G0).
1714:Drivers/STM32G0xx_HAL_Driver/Inc/stm32g0xx_ll_adc.h ****             Function kept for legacy purpose.
1715:Drivers/STM32G0xx_HAL_Driver/Inc/stm32g0xx_ll_adc.h ****   * @note   On this STM32 series, setting of this feature is conditioned to
1716:Drivers/STM32G0xx_HAL_Driver/Inc/stm32g0xx_ll_adc.h ****   *         ADC state:
1717:Drivers/STM32G0xx_HAL_Driver/Inc/stm32g0xx_ll_adc.h ****   *         ADC must be disabled or enabled without conversion on going
1718:Drivers/STM32G0xx_HAL_Driver/Inc/stm32g0xx_ll_adc.h ****   *         on group regular.
1719:Drivers/STM32G0xx_HAL_Driver/Inc/stm32g0xx_ll_adc.h ****   * @rmtoll CCR      LFMEN          LL_ADC_SetCommonFrequencyMode
1720:Drivers/STM32G0xx_HAL_Driver/Inc/stm32g0xx_ll_adc.h ****   * @param  ADCxy_COMMON ADC common instance
1721:Drivers/STM32G0xx_HAL_Driver/Inc/stm32g0xx_ll_adc.h ****   *         (can be set directly from CMSIS definition or by using helper macro @ref __LL_ADC_COMMO
1722:Drivers/STM32G0xx_HAL_Driver/Inc/stm32g0xx_ll_adc.h ****   * @param  CommonFrequencyMode This parameter can be one of the following values:
1723:Drivers/STM32G0xx_HAL_Driver/Inc/stm32g0xx_ll_adc.h ****   *         @arg @ref LL_ADC_CLOCK_FREQ_MODE_HIGH
1724:Drivers/STM32G0xx_HAL_Driver/Inc/stm32g0xx_ll_adc.h ****   *         @arg @ref LL_ADC_CLOCK_FREQ_MODE_LOW
1725:Drivers/STM32G0xx_HAL_Driver/Inc/stm32g0xx_ll_adc.h ****   * @retval None
1726:Drivers/STM32G0xx_HAL_Driver/Inc/stm32g0xx_ll_adc.h ****   */
1727:Drivers/STM32G0xx_HAL_Driver/Inc/stm32g0xx_ll_adc.h **** __STATIC_INLINE void LL_ADC_SetCommonFrequencyMode(ADC_Common_TypeDef *ADCxy_COMMON, uint32_t Commo
1728:Drivers/STM32G0xx_HAL_Driver/Inc/stm32g0xx_ll_adc.h **** {
1729:Drivers/STM32G0xx_HAL_Driver/Inc/stm32g0xx_ll_adc.h ****   MODIFY_REG(ADCxy_COMMON->CCR, ADC_CCR_LFMEN, CommonFrequencyMode);
1730:Drivers/STM32G0xx_HAL_Driver/Inc/stm32g0xx_ll_adc.h **** }
1731:Drivers/STM32G0xx_HAL_Driver/Inc/stm32g0xx_ll_adc.h **** 
1732:Drivers/STM32G0xx_HAL_Driver/Inc/stm32g0xx_ll_adc.h **** /**
1733:Drivers/STM32G0xx_HAL_Driver/Inc/stm32g0xx_ll_adc.h ****   * @brief  Legacy feature, useless on STM32G0 (ADC common clock low frequency
1734:Drivers/STM32G0xx_HAL_Driver/Inc/stm32g0xx_ll_adc.h ****             mode is automatically managed by ADC peripheral on STM32G0).
1735:Drivers/STM32G0xx_HAL_Driver/Inc/stm32g0xx_ll_adc.h ****             Function kept for legacy purpose.
1736:Drivers/STM32G0xx_HAL_Driver/Inc/stm32g0xx_ll_adc.h ****   * @rmtoll CCR      LFMEN          LL_ADC_GetCommonFrequencyMode
1737:Drivers/STM32G0xx_HAL_Driver/Inc/stm32g0xx_ll_adc.h ****   * @param  ADCxy_COMMON ADC common instance
1738:Drivers/STM32G0xx_HAL_Driver/Inc/stm32g0xx_ll_adc.h ****   *         (can be set directly from CMSIS definition or by using helper macro @ref __LL_ADC_COMMO
1739:Drivers/STM32G0xx_HAL_Driver/Inc/stm32g0xx_ll_adc.h ****   * @retval Returned value can be one of the following values:
1740:Drivers/STM32G0xx_HAL_Driver/Inc/stm32g0xx_ll_adc.h ****   *         @arg @ref LL_ADC_CLOCK_FREQ_MODE_HIGH
1741:Drivers/STM32G0xx_HAL_Driver/Inc/stm32g0xx_ll_adc.h ****   *         @arg @ref LL_ADC_CLOCK_FREQ_MODE_LOW
1742:Drivers/STM32G0xx_HAL_Driver/Inc/stm32g0xx_ll_adc.h ****   */
1743:Drivers/STM32G0xx_HAL_Driver/Inc/stm32g0xx_ll_adc.h **** __STATIC_INLINE uint32_t LL_ADC_GetCommonFrequencyMode(ADC_Common_TypeDef *ADCxy_COMMON)
1744:Drivers/STM32G0xx_HAL_Driver/Inc/stm32g0xx_ll_adc.h **** {
1745:Drivers/STM32G0xx_HAL_Driver/Inc/stm32g0xx_ll_adc.h ****   return (uint32_t)(READ_BIT(ADCxy_COMMON->CCR, ADC_CCR_LFMEN));
1746:Drivers/STM32G0xx_HAL_Driver/Inc/stm32g0xx_ll_adc.h **** }
1747:Drivers/STM32G0xx_HAL_Driver/Inc/stm32g0xx_ll_adc.h **** 
1748:Drivers/STM32G0xx_HAL_Driver/Inc/stm32g0xx_ll_adc.h **** /**
ARM GAS  /tmp/ccAd34n9.s 			page 35


1749:Drivers/STM32G0xx_HAL_Driver/Inc/stm32g0xx_ll_adc.h ****   * @brief  Set parameter common to several ADC: measurement path to
1750:Drivers/STM32G0xx_HAL_Driver/Inc/stm32g0xx_ll_adc.h ****   *         internal channels (VrefInt, temperature sensor, ...).
1751:Drivers/STM32G0xx_HAL_Driver/Inc/stm32g0xx_ll_adc.h ****   *         Configure all paths (overwrite current configuration).
1752:Drivers/STM32G0xx_HAL_Driver/Inc/stm32g0xx_ll_adc.h ****   * @note   One or several values can be selected.
1753:Drivers/STM32G0xx_HAL_Driver/Inc/stm32g0xx_ll_adc.h ****   *         Example: (LL_ADC_PATH_INTERNAL_VREFINT |
1754:Drivers/STM32G0xx_HAL_Driver/Inc/stm32g0xx_ll_adc.h ****   *                   LL_ADC_PATH_INTERNAL_TEMPSENSOR)
1755:Drivers/STM32G0xx_HAL_Driver/Inc/stm32g0xx_ll_adc.h ****   *         The values not selected are removed from configuration.
1756:Drivers/STM32G0xx_HAL_Driver/Inc/stm32g0xx_ll_adc.h ****   * @note   Stabilization time of measurement path to internal channel:
1757:Drivers/STM32G0xx_HAL_Driver/Inc/stm32g0xx_ll_adc.h ****   *         After enabling internal paths, before starting ADC conversion,
1758:Drivers/STM32G0xx_HAL_Driver/Inc/stm32g0xx_ll_adc.h ****   *         a delay is required for internal voltage reference and
1759:Drivers/STM32G0xx_HAL_Driver/Inc/stm32g0xx_ll_adc.h ****   *         temperature sensor stabilization time.
1760:Drivers/STM32G0xx_HAL_Driver/Inc/stm32g0xx_ll_adc.h ****   *         Refer to device datasheet.
1761:Drivers/STM32G0xx_HAL_Driver/Inc/stm32g0xx_ll_adc.h ****   *         Refer to literal @ref LL_ADC_DELAY_VREFINT_STAB_US.
1762:Drivers/STM32G0xx_HAL_Driver/Inc/stm32g0xx_ll_adc.h ****   *         Refer to literals @ref LL_ADC_DELAY_TEMPSENSOR_STAB_US,
1763:Drivers/STM32G0xx_HAL_Driver/Inc/stm32g0xx_ll_adc.h ****   *         @ref LL_ADC_DELAY_TEMPSENSOR_BUFFER_STAB_US.
1764:Drivers/STM32G0xx_HAL_Driver/Inc/stm32g0xx_ll_adc.h ****   * @note   ADC internal channel sampling time constraint:
1765:Drivers/STM32G0xx_HAL_Driver/Inc/stm32g0xx_ll_adc.h ****   *         For ADC conversion of internal channels,
1766:Drivers/STM32G0xx_HAL_Driver/Inc/stm32g0xx_ll_adc.h ****   *         a sampling time minimum value is required.
1767:Drivers/STM32G0xx_HAL_Driver/Inc/stm32g0xx_ll_adc.h ****   *         Refer to device datasheet.
1768:Drivers/STM32G0xx_HAL_Driver/Inc/stm32g0xx_ll_adc.h ****   * @note   On this STM32 series, setting of this feature is conditioned to
1769:Drivers/STM32G0xx_HAL_Driver/Inc/stm32g0xx_ll_adc.h ****   *         ADC state:
1770:Drivers/STM32G0xx_HAL_Driver/Inc/stm32g0xx_ll_adc.h ****   *         All ADC instances of the ADC common group must be disabled.
1771:Drivers/STM32G0xx_HAL_Driver/Inc/stm32g0xx_ll_adc.h ****   *         This check can be done with function @ref LL_ADC_IsEnabled() for each
1772:Drivers/STM32G0xx_HAL_Driver/Inc/stm32g0xx_ll_adc.h ****   *         ADC instance or by using helper macro helper macro
1773:Drivers/STM32G0xx_HAL_Driver/Inc/stm32g0xx_ll_adc.h ****   *         @ref __LL_ADC_IS_ENABLED_ALL_COMMON_INSTANCE().
1774:Drivers/STM32G0xx_HAL_Driver/Inc/stm32g0xx_ll_adc.h ****   * @rmtoll CCR      VREFEN         LL_ADC_SetCommonPathInternalCh\n
1775:Drivers/STM32G0xx_HAL_Driver/Inc/stm32g0xx_ll_adc.h ****   *         CCR      TSEN           LL_ADC_SetCommonPathInternalCh\n
1776:Drivers/STM32G0xx_HAL_Driver/Inc/stm32g0xx_ll_adc.h ****   *         CCR      VBATEN         LL_ADC_SetCommonPathInternalCh
1777:Drivers/STM32G0xx_HAL_Driver/Inc/stm32g0xx_ll_adc.h ****   * @param  ADCxy_COMMON ADC common instance
1778:Drivers/STM32G0xx_HAL_Driver/Inc/stm32g0xx_ll_adc.h ****   *         (can be set directly from CMSIS definition or by using helper macro @ref __LL_ADC_COMMO
1779:Drivers/STM32G0xx_HAL_Driver/Inc/stm32g0xx_ll_adc.h ****   * @param  PathInternal This parameter can be a combination of the following values:
1780:Drivers/STM32G0xx_HAL_Driver/Inc/stm32g0xx_ll_adc.h ****   *         @arg @ref LL_ADC_PATH_INTERNAL_NONE
1781:Drivers/STM32G0xx_HAL_Driver/Inc/stm32g0xx_ll_adc.h ****   *         @arg @ref LL_ADC_PATH_INTERNAL_VREFINT
1782:Drivers/STM32G0xx_HAL_Driver/Inc/stm32g0xx_ll_adc.h ****   *         @arg @ref LL_ADC_PATH_INTERNAL_TEMPSENSOR
1783:Drivers/STM32G0xx_HAL_Driver/Inc/stm32g0xx_ll_adc.h ****   *         @arg @ref LL_ADC_PATH_INTERNAL_VBAT
1784:Drivers/STM32G0xx_HAL_Driver/Inc/stm32g0xx_ll_adc.h ****   * @retval None
1785:Drivers/STM32G0xx_HAL_Driver/Inc/stm32g0xx_ll_adc.h ****   */
1786:Drivers/STM32G0xx_HAL_Driver/Inc/stm32g0xx_ll_adc.h **** __STATIC_INLINE void LL_ADC_SetCommonPathInternalCh(ADC_Common_TypeDef *ADCxy_COMMON, uint32_t Path
1787:Drivers/STM32G0xx_HAL_Driver/Inc/stm32g0xx_ll_adc.h **** {
1788:Drivers/STM32G0xx_HAL_Driver/Inc/stm32g0xx_ll_adc.h ****   MODIFY_REG(ADCxy_COMMON->CCR, ADC_CCR_VREFEN | ADC_CCR_TSEN | ADC_CCR_VBATEN, PathInternal);
1789:Drivers/STM32G0xx_HAL_Driver/Inc/stm32g0xx_ll_adc.h **** }
1790:Drivers/STM32G0xx_HAL_Driver/Inc/stm32g0xx_ll_adc.h **** 
1791:Drivers/STM32G0xx_HAL_Driver/Inc/stm32g0xx_ll_adc.h **** /**
1792:Drivers/STM32G0xx_HAL_Driver/Inc/stm32g0xx_ll_adc.h ****   * @brief  Set parameter common to several ADC: measurement path to
1793:Drivers/STM32G0xx_HAL_Driver/Inc/stm32g0xx_ll_adc.h ****   *         internal channels (VrefInt, temperature sensor, ...).
1794:Drivers/STM32G0xx_HAL_Driver/Inc/stm32g0xx_ll_adc.h ****   *         Add paths to the current configuration.
1795:Drivers/STM32G0xx_HAL_Driver/Inc/stm32g0xx_ll_adc.h ****   * @note   One or several values can be selected.
1796:Drivers/STM32G0xx_HAL_Driver/Inc/stm32g0xx_ll_adc.h ****   *         Example: (LL_ADC_PATH_INTERNAL_VREFINT |
1797:Drivers/STM32G0xx_HAL_Driver/Inc/stm32g0xx_ll_adc.h ****   *                   LL_ADC_PATH_INTERNAL_TEMPSENSOR)
1798:Drivers/STM32G0xx_HAL_Driver/Inc/stm32g0xx_ll_adc.h ****   * @note   Stabilization time of measurement path to internal channel:
1799:Drivers/STM32G0xx_HAL_Driver/Inc/stm32g0xx_ll_adc.h ****   *         After enabling internal paths, before starting ADC conversion,
1800:Drivers/STM32G0xx_HAL_Driver/Inc/stm32g0xx_ll_adc.h ****   *         a delay is required for internal voltage reference and
1801:Drivers/STM32G0xx_HAL_Driver/Inc/stm32g0xx_ll_adc.h ****   *         temperature sensor stabilization time.
1802:Drivers/STM32G0xx_HAL_Driver/Inc/stm32g0xx_ll_adc.h ****   *         Refer to device datasheet.
1803:Drivers/STM32G0xx_HAL_Driver/Inc/stm32g0xx_ll_adc.h ****   *         Refer to literal @ref LL_ADC_DELAY_VREFINT_STAB_US.
1804:Drivers/STM32G0xx_HAL_Driver/Inc/stm32g0xx_ll_adc.h ****   *         Refer to literals @ref LL_ADC_DELAY_TEMPSENSOR_STAB_US,
1805:Drivers/STM32G0xx_HAL_Driver/Inc/stm32g0xx_ll_adc.h ****   *         @ref LL_ADC_DELAY_TEMPSENSOR_BUFFER_STAB_US.
ARM GAS  /tmp/ccAd34n9.s 			page 36


1806:Drivers/STM32G0xx_HAL_Driver/Inc/stm32g0xx_ll_adc.h ****   * @note   ADC internal channel sampling time constraint:
1807:Drivers/STM32G0xx_HAL_Driver/Inc/stm32g0xx_ll_adc.h ****   *         For ADC conversion of internal channels,
1808:Drivers/STM32G0xx_HAL_Driver/Inc/stm32g0xx_ll_adc.h ****   *         a sampling time minimum value is required.
1809:Drivers/STM32G0xx_HAL_Driver/Inc/stm32g0xx_ll_adc.h ****   *         Refer to device datasheet.
1810:Drivers/STM32G0xx_HAL_Driver/Inc/stm32g0xx_ll_adc.h ****   * @note   On this STM32 series, setting of this feature is conditioned to
1811:Drivers/STM32G0xx_HAL_Driver/Inc/stm32g0xx_ll_adc.h ****   *         ADC state:
1812:Drivers/STM32G0xx_HAL_Driver/Inc/stm32g0xx_ll_adc.h ****   *         All ADC instances of the ADC common group must be disabled.
1813:Drivers/STM32G0xx_HAL_Driver/Inc/stm32g0xx_ll_adc.h ****   *         This check can be done with function @ref LL_ADC_IsEnabled() for each
1814:Drivers/STM32G0xx_HAL_Driver/Inc/stm32g0xx_ll_adc.h ****   *         ADC instance or by using helper macro helper macro
1815:Drivers/STM32G0xx_HAL_Driver/Inc/stm32g0xx_ll_adc.h ****   *         @ref __LL_ADC_IS_ENABLED_ALL_COMMON_INSTANCE().
1816:Drivers/STM32G0xx_HAL_Driver/Inc/stm32g0xx_ll_adc.h ****   * @rmtoll CCR      VREFEN         LL_ADC_SetCommonPathInternalChAdd\n
1817:Drivers/STM32G0xx_HAL_Driver/Inc/stm32g0xx_ll_adc.h ****   *         CCR      TSEN           LL_ADC_SetCommonPathInternalChAdd\n
1818:Drivers/STM32G0xx_HAL_Driver/Inc/stm32g0xx_ll_adc.h ****   *         CCR      VBATEN         LL_ADC_SetCommonPathInternalChAdd
1819:Drivers/STM32G0xx_HAL_Driver/Inc/stm32g0xx_ll_adc.h ****   * @param  ADCxy_COMMON ADC common instance
1820:Drivers/STM32G0xx_HAL_Driver/Inc/stm32g0xx_ll_adc.h ****   *         (can be set directly from CMSIS definition or by using helper macro @ref __LL_ADC_COMMO
1821:Drivers/STM32G0xx_HAL_Driver/Inc/stm32g0xx_ll_adc.h ****   * @param  PathInternal This parameter can be a combination of the following values:
1822:Drivers/STM32G0xx_HAL_Driver/Inc/stm32g0xx_ll_adc.h ****   *         @arg @ref LL_ADC_PATH_INTERNAL_NONE
1823:Drivers/STM32G0xx_HAL_Driver/Inc/stm32g0xx_ll_adc.h ****   *         @arg @ref LL_ADC_PATH_INTERNAL_VREFINT
1824:Drivers/STM32G0xx_HAL_Driver/Inc/stm32g0xx_ll_adc.h ****   *         @arg @ref LL_ADC_PATH_INTERNAL_TEMPSENSOR
1825:Drivers/STM32G0xx_HAL_Driver/Inc/stm32g0xx_ll_adc.h ****   *         @arg @ref LL_ADC_PATH_INTERNAL_VBAT
1826:Drivers/STM32G0xx_HAL_Driver/Inc/stm32g0xx_ll_adc.h ****   * @retval None
1827:Drivers/STM32G0xx_HAL_Driver/Inc/stm32g0xx_ll_adc.h ****   */
1828:Drivers/STM32G0xx_HAL_Driver/Inc/stm32g0xx_ll_adc.h **** __STATIC_INLINE void LL_ADC_SetCommonPathInternalChAdd(ADC_Common_TypeDef *ADCxy_COMMON, uint32_t P
1829:Drivers/STM32G0xx_HAL_Driver/Inc/stm32g0xx_ll_adc.h **** {
1830:Drivers/STM32G0xx_HAL_Driver/Inc/stm32g0xx_ll_adc.h ****   SET_BIT(ADCxy_COMMON->CCR, PathInternal);
1831:Drivers/STM32G0xx_HAL_Driver/Inc/stm32g0xx_ll_adc.h **** }
1832:Drivers/STM32G0xx_HAL_Driver/Inc/stm32g0xx_ll_adc.h **** 
1833:Drivers/STM32G0xx_HAL_Driver/Inc/stm32g0xx_ll_adc.h **** /**
1834:Drivers/STM32G0xx_HAL_Driver/Inc/stm32g0xx_ll_adc.h ****   * @brief  Set parameter common to several ADC: measurement path to
1835:Drivers/STM32G0xx_HAL_Driver/Inc/stm32g0xx_ll_adc.h ****   *         internal channels (VrefInt, temperature sensor, ...).
1836:Drivers/STM32G0xx_HAL_Driver/Inc/stm32g0xx_ll_adc.h ****   *         Remove paths to the current configuration.
1837:Drivers/STM32G0xx_HAL_Driver/Inc/stm32g0xx_ll_adc.h ****   * @note   One or several values can be selected.
1838:Drivers/STM32G0xx_HAL_Driver/Inc/stm32g0xx_ll_adc.h ****   *         Example: (LL_ADC_PATH_INTERNAL_VREFINT |
1839:Drivers/STM32G0xx_HAL_Driver/Inc/stm32g0xx_ll_adc.h ****   *                   LL_ADC_PATH_INTERNAL_TEMPSENSOR)
1840:Drivers/STM32G0xx_HAL_Driver/Inc/stm32g0xx_ll_adc.h ****   * @note   On this STM32 series, setting of this feature is conditioned to
1841:Drivers/STM32G0xx_HAL_Driver/Inc/stm32g0xx_ll_adc.h ****   *         ADC state:
1842:Drivers/STM32G0xx_HAL_Driver/Inc/stm32g0xx_ll_adc.h ****   *         All ADC instances of the ADC common group must be disabled.
1843:Drivers/STM32G0xx_HAL_Driver/Inc/stm32g0xx_ll_adc.h ****   *         This check can be done with function @ref LL_ADC_IsEnabled() for each
1844:Drivers/STM32G0xx_HAL_Driver/Inc/stm32g0xx_ll_adc.h ****   *         ADC instance or by using helper macro helper macro
1845:Drivers/STM32G0xx_HAL_Driver/Inc/stm32g0xx_ll_adc.h ****   *         @ref __LL_ADC_IS_ENABLED_ALL_COMMON_INSTANCE().
1846:Drivers/STM32G0xx_HAL_Driver/Inc/stm32g0xx_ll_adc.h ****   * @rmtoll CCR      VREFEN         LL_ADC_SetCommonPathInternalChRem\n
1847:Drivers/STM32G0xx_HAL_Driver/Inc/stm32g0xx_ll_adc.h ****   *         CCR      TSEN           LL_ADC_SetCommonPathInternalChRem\n
1848:Drivers/STM32G0xx_HAL_Driver/Inc/stm32g0xx_ll_adc.h ****   *         CCR      VBATEN         LL_ADC_SetCommonPathInternalChRem
1849:Drivers/STM32G0xx_HAL_Driver/Inc/stm32g0xx_ll_adc.h ****   * @param  ADCxy_COMMON ADC common instance
1850:Drivers/STM32G0xx_HAL_Driver/Inc/stm32g0xx_ll_adc.h ****   *         (can be set directly from CMSIS definition or by using helper macro @ref __LL_ADC_COMMO
1851:Drivers/STM32G0xx_HAL_Driver/Inc/stm32g0xx_ll_adc.h ****   * @param  PathInternal This parameter can be a combination of the following values:
1852:Drivers/STM32G0xx_HAL_Driver/Inc/stm32g0xx_ll_adc.h ****   *         @arg @ref LL_ADC_PATH_INTERNAL_NONE
1853:Drivers/STM32G0xx_HAL_Driver/Inc/stm32g0xx_ll_adc.h ****   *         @arg @ref LL_ADC_PATH_INTERNAL_VREFINT
1854:Drivers/STM32G0xx_HAL_Driver/Inc/stm32g0xx_ll_adc.h ****   *         @arg @ref LL_ADC_PATH_INTERNAL_TEMPSENSOR
1855:Drivers/STM32G0xx_HAL_Driver/Inc/stm32g0xx_ll_adc.h ****   *         @arg @ref LL_ADC_PATH_INTERNAL_VBAT
1856:Drivers/STM32G0xx_HAL_Driver/Inc/stm32g0xx_ll_adc.h ****   * @retval None
1857:Drivers/STM32G0xx_HAL_Driver/Inc/stm32g0xx_ll_adc.h ****   */
1858:Drivers/STM32G0xx_HAL_Driver/Inc/stm32g0xx_ll_adc.h **** __STATIC_INLINE void LL_ADC_SetCommonPathInternalChRem(ADC_Common_TypeDef *ADCxy_COMMON, uint32_t P
1859:Drivers/STM32G0xx_HAL_Driver/Inc/stm32g0xx_ll_adc.h **** {
1860:Drivers/STM32G0xx_HAL_Driver/Inc/stm32g0xx_ll_adc.h ****   CLEAR_BIT(ADCxy_COMMON->CCR, PathInternal);
1861:Drivers/STM32G0xx_HAL_Driver/Inc/stm32g0xx_ll_adc.h **** }
1862:Drivers/STM32G0xx_HAL_Driver/Inc/stm32g0xx_ll_adc.h **** 
ARM GAS  /tmp/ccAd34n9.s 			page 37


1863:Drivers/STM32G0xx_HAL_Driver/Inc/stm32g0xx_ll_adc.h **** /**
1864:Drivers/STM32G0xx_HAL_Driver/Inc/stm32g0xx_ll_adc.h ****   * @brief  Get parameter common to several ADC: measurement path to internal
1865:Drivers/STM32G0xx_HAL_Driver/Inc/stm32g0xx_ll_adc.h ****   *         channels (VrefInt, temperature sensor, ...).
1866:Drivers/STM32G0xx_HAL_Driver/Inc/stm32g0xx_ll_adc.h ****   * @note   One or several values can be selected.
1867:Drivers/STM32G0xx_HAL_Driver/Inc/stm32g0xx_ll_adc.h ****   *         Example: (LL_ADC_PATH_INTERNAL_VREFINT |
1868:Drivers/STM32G0xx_HAL_Driver/Inc/stm32g0xx_ll_adc.h ****   *                   LL_ADC_PATH_INTERNAL_TEMPSENSOR)
1869:Drivers/STM32G0xx_HAL_Driver/Inc/stm32g0xx_ll_adc.h ****   * @rmtoll CCR      VREFEN         LL_ADC_GetCommonPathInternalCh\n
1870:Drivers/STM32G0xx_HAL_Driver/Inc/stm32g0xx_ll_adc.h ****   *         CCR      TSEN           LL_ADC_GetCommonPathInternalCh\n
1871:Drivers/STM32G0xx_HAL_Driver/Inc/stm32g0xx_ll_adc.h ****   *         CCR      VBATEN         LL_ADC_GetCommonPathInternalCh
1872:Drivers/STM32G0xx_HAL_Driver/Inc/stm32g0xx_ll_adc.h ****   * @param  ADCxy_COMMON ADC common instance
1873:Drivers/STM32G0xx_HAL_Driver/Inc/stm32g0xx_ll_adc.h ****   *         (can be set directly from CMSIS definition or by using helper macro @ref __LL_ADC_COMMO
1874:Drivers/STM32G0xx_HAL_Driver/Inc/stm32g0xx_ll_adc.h ****   * @retval Returned value can be a combination of the following values:
1875:Drivers/STM32G0xx_HAL_Driver/Inc/stm32g0xx_ll_adc.h ****   *         @arg @ref LL_ADC_PATH_INTERNAL_NONE
1876:Drivers/STM32G0xx_HAL_Driver/Inc/stm32g0xx_ll_adc.h ****   *         @arg @ref LL_ADC_PATH_INTERNAL_VREFINT
1877:Drivers/STM32G0xx_HAL_Driver/Inc/stm32g0xx_ll_adc.h ****   *         @arg @ref LL_ADC_PATH_INTERNAL_TEMPSENSOR
1878:Drivers/STM32G0xx_HAL_Driver/Inc/stm32g0xx_ll_adc.h ****   *         @arg @ref LL_ADC_PATH_INTERNAL_VBAT
1879:Drivers/STM32G0xx_HAL_Driver/Inc/stm32g0xx_ll_adc.h ****   */
1880:Drivers/STM32G0xx_HAL_Driver/Inc/stm32g0xx_ll_adc.h **** __STATIC_INLINE uint32_t LL_ADC_GetCommonPathInternalCh(ADC_Common_TypeDef *ADCxy_COMMON)
1881:Drivers/STM32G0xx_HAL_Driver/Inc/stm32g0xx_ll_adc.h **** {
1882:Drivers/STM32G0xx_HAL_Driver/Inc/stm32g0xx_ll_adc.h ****   return (uint32_t)(READ_BIT(ADCxy_COMMON->CCR, ADC_CCR_VREFEN | ADC_CCR_TSEN | ADC_CCR_VBATEN));
1883:Drivers/STM32G0xx_HAL_Driver/Inc/stm32g0xx_ll_adc.h **** }
1884:Drivers/STM32G0xx_HAL_Driver/Inc/stm32g0xx_ll_adc.h **** 
1885:Drivers/STM32G0xx_HAL_Driver/Inc/stm32g0xx_ll_adc.h **** /**
1886:Drivers/STM32G0xx_HAL_Driver/Inc/stm32g0xx_ll_adc.h ****   * @}
1887:Drivers/STM32G0xx_HAL_Driver/Inc/stm32g0xx_ll_adc.h ****   */
1888:Drivers/STM32G0xx_HAL_Driver/Inc/stm32g0xx_ll_adc.h **** 
1889:Drivers/STM32G0xx_HAL_Driver/Inc/stm32g0xx_ll_adc.h **** /** @defgroup ADC_LL_EF_Configuration_ADC_Instance Configuration of ADC hierarchical scope: ADC ins
1890:Drivers/STM32G0xx_HAL_Driver/Inc/stm32g0xx_ll_adc.h ****   * @{
1891:Drivers/STM32G0xx_HAL_Driver/Inc/stm32g0xx_ll_adc.h ****   */
1892:Drivers/STM32G0xx_HAL_Driver/Inc/stm32g0xx_ll_adc.h **** 
1893:Drivers/STM32G0xx_HAL_Driver/Inc/stm32g0xx_ll_adc.h **** /**
1894:Drivers/STM32G0xx_HAL_Driver/Inc/stm32g0xx_ll_adc.h ****   * @brief  Set ADC instance clock source and prescaler.
1895:Drivers/STM32G0xx_HAL_Driver/Inc/stm32g0xx_ll_adc.h ****   * @note   On this STM32 series, setting of this feature is conditioned to
1896:Drivers/STM32G0xx_HAL_Driver/Inc/stm32g0xx_ll_adc.h ****   *         ADC state:
1897:Drivers/STM32G0xx_HAL_Driver/Inc/stm32g0xx_ll_adc.h ****   *         ADC must be disabled.
1898:Drivers/STM32G0xx_HAL_Driver/Inc/stm32g0xx_ll_adc.h ****   * @rmtoll CFGR2    CKMODE         LL_ADC_SetClock
1899:Drivers/STM32G0xx_HAL_Driver/Inc/stm32g0xx_ll_adc.h ****   * @param  ADCx ADC instance
1900:Drivers/STM32G0xx_HAL_Driver/Inc/stm32g0xx_ll_adc.h ****   * @param  ClockSource This parameter can be one of the following values:
1901:Drivers/STM32G0xx_HAL_Driver/Inc/stm32g0xx_ll_adc.h ****   *         @arg @ref LL_ADC_CLOCK_SYNC_PCLK_DIV4
1902:Drivers/STM32G0xx_HAL_Driver/Inc/stm32g0xx_ll_adc.h ****   *         @arg @ref LL_ADC_CLOCK_SYNC_PCLK_DIV2
1903:Drivers/STM32G0xx_HAL_Driver/Inc/stm32g0xx_ll_adc.h ****   *         @arg @ref LL_ADC_CLOCK_SYNC_PCLK_DIV1 (2)
1904:Drivers/STM32G0xx_HAL_Driver/Inc/stm32g0xx_ll_adc.h ****   *         @arg @ref LL_ADC_CLOCK_ASYNC (1)
1905:Drivers/STM32G0xx_HAL_Driver/Inc/stm32g0xx_ll_adc.h ****   *
1906:Drivers/STM32G0xx_HAL_Driver/Inc/stm32g0xx_ll_adc.h ****   *         (1) Asynchronous clock prescaler can be configured using
1907:Drivers/STM32G0xx_HAL_Driver/Inc/stm32g0xx_ll_adc.h ****   *             function @ref LL_ADC_SetCommonClock().\n
1908:Drivers/STM32G0xx_HAL_Driver/Inc/stm32g0xx_ll_adc.h ****   *         (2) Caution: This parameter has some clock ratio constraints:
1909:Drivers/STM32G0xx_HAL_Driver/Inc/stm32g0xx_ll_adc.h ****   *             This configuration must be enabled only if PCLK has a 50%
1910:Drivers/STM32G0xx_HAL_Driver/Inc/stm32g0xx_ll_adc.h ****   *             duty clock cycle (APB prescaler configured inside the RCC
1911:Drivers/STM32G0xx_HAL_Driver/Inc/stm32g0xx_ll_adc.h ****   *             must be bypassed and the system clock must by 50% duty
1912:Drivers/STM32G0xx_HAL_Driver/Inc/stm32g0xx_ll_adc.h ****   *             cycle).
1913:Drivers/STM32G0xx_HAL_Driver/Inc/stm32g0xx_ll_adc.h ****   *             Refer to reference manual.
1914:Drivers/STM32G0xx_HAL_Driver/Inc/stm32g0xx_ll_adc.h ****   * @retval None
1915:Drivers/STM32G0xx_HAL_Driver/Inc/stm32g0xx_ll_adc.h ****   */
1916:Drivers/STM32G0xx_HAL_Driver/Inc/stm32g0xx_ll_adc.h **** __STATIC_INLINE void LL_ADC_SetClock(ADC_TypeDef *ADCx, uint32_t ClockSource)
1917:Drivers/STM32G0xx_HAL_Driver/Inc/stm32g0xx_ll_adc.h **** {
1918:Drivers/STM32G0xx_HAL_Driver/Inc/stm32g0xx_ll_adc.h ****   MODIFY_REG(ADCx->CFGR2, ADC_CFGR2_CKMODE, ClockSource);
1919:Drivers/STM32G0xx_HAL_Driver/Inc/stm32g0xx_ll_adc.h **** }
ARM GAS  /tmp/ccAd34n9.s 			page 38


1920:Drivers/STM32G0xx_HAL_Driver/Inc/stm32g0xx_ll_adc.h **** 
1921:Drivers/STM32G0xx_HAL_Driver/Inc/stm32g0xx_ll_adc.h **** /**
1922:Drivers/STM32G0xx_HAL_Driver/Inc/stm32g0xx_ll_adc.h ****   * @brief  Get ADC instance clock source and prescaler.
1923:Drivers/STM32G0xx_HAL_Driver/Inc/stm32g0xx_ll_adc.h ****   * @rmtoll CFGR2    CKMODE         LL_ADC_GetClock
1924:Drivers/STM32G0xx_HAL_Driver/Inc/stm32g0xx_ll_adc.h ****   * @param  ADCx ADC instance
1925:Drivers/STM32G0xx_HAL_Driver/Inc/stm32g0xx_ll_adc.h ****   * @retval Returned value can be one of the following values:
1926:Drivers/STM32G0xx_HAL_Driver/Inc/stm32g0xx_ll_adc.h ****   *         @arg @ref LL_ADC_CLOCK_SYNC_PCLK_DIV4
1927:Drivers/STM32G0xx_HAL_Driver/Inc/stm32g0xx_ll_adc.h ****   *         @arg @ref LL_ADC_CLOCK_SYNC_PCLK_DIV2
1928:Drivers/STM32G0xx_HAL_Driver/Inc/stm32g0xx_ll_adc.h ****   *         @arg @ref LL_ADC_CLOCK_SYNC_PCLK_DIV1 (2)
1929:Drivers/STM32G0xx_HAL_Driver/Inc/stm32g0xx_ll_adc.h ****   *         @arg @ref LL_ADC_CLOCK_ASYNC (1)
1930:Drivers/STM32G0xx_HAL_Driver/Inc/stm32g0xx_ll_adc.h ****   *
1931:Drivers/STM32G0xx_HAL_Driver/Inc/stm32g0xx_ll_adc.h ****   *         (1) Asynchronous clock prescaler can be retrieved using
1932:Drivers/STM32G0xx_HAL_Driver/Inc/stm32g0xx_ll_adc.h ****   *             function @ref LL_ADC_GetCommonClock().\n
1933:Drivers/STM32G0xx_HAL_Driver/Inc/stm32g0xx_ll_adc.h ****   *         (2) Caution: This parameter has some clock ratio constraints:
1934:Drivers/STM32G0xx_HAL_Driver/Inc/stm32g0xx_ll_adc.h ****   *             This configuration must be enabled only if PCLK has a 50%
1935:Drivers/STM32G0xx_HAL_Driver/Inc/stm32g0xx_ll_adc.h ****   *             duty clock cycle (APB prescaler configured inside the RCC
1936:Drivers/STM32G0xx_HAL_Driver/Inc/stm32g0xx_ll_adc.h ****   *             must be bypassed and the system clock must by 50% duty
1937:Drivers/STM32G0xx_HAL_Driver/Inc/stm32g0xx_ll_adc.h ****   *             cycle).
1938:Drivers/STM32G0xx_HAL_Driver/Inc/stm32g0xx_ll_adc.h ****   *             Refer to reference manual.
1939:Drivers/STM32G0xx_HAL_Driver/Inc/stm32g0xx_ll_adc.h ****   */
1940:Drivers/STM32G0xx_HAL_Driver/Inc/stm32g0xx_ll_adc.h **** __STATIC_INLINE uint32_t LL_ADC_GetClock(ADC_TypeDef *ADCx)
1941:Drivers/STM32G0xx_HAL_Driver/Inc/stm32g0xx_ll_adc.h **** {
1942:Drivers/STM32G0xx_HAL_Driver/Inc/stm32g0xx_ll_adc.h ****   return (uint32_t)(READ_BIT(ADCx->CFGR2, ADC_CFGR2_CKMODE));
1943:Drivers/STM32G0xx_HAL_Driver/Inc/stm32g0xx_ll_adc.h **** }
1944:Drivers/STM32G0xx_HAL_Driver/Inc/stm32g0xx_ll_adc.h **** 
1945:Drivers/STM32G0xx_HAL_Driver/Inc/stm32g0xx_ll_adc.h **** /**
1946:Drivers/STM32G0xx_HAL_Driver/Inc/stm32g0xx_ll_adc.h ****   * @brief  Set ADC calibration factor in the mode single-ended
1947:Drivers/STM32G0xx_HAL_Driver/Inc/stm32g0xx_ll_adc.h ****   *         or differential (for devices with differential mode available).
1948:Drivers/STM32G0xx_HAL_Driver/Inc/stm32g0xx_ll_adc.h ****   * @note   This function is intended to set calibration parameters
1949:Drivers/STM32G0xx_HAL_Driver/Inc/stm32g0xx_ll_adc.h ****   *         without having to perform a new calibration using
1950:Drivers/STM32G0xx_HAL_Driver/Inc/stm32g0xx_ll_adc.h ****   *         @ref LL_ADC_StartCalibration().
1951:Drivers/STM32G0xx_HAL_Driver/Inc/stm32g0xx_ll_adc.h ****   * @note   On this STM32 series, setting of this feature is conditioned to
1952:Drivers/STM32G0xx_HAL_Driver/Inc/stm32g0xx_ll_adc.h ****   *         ADC state:
1953:Drivers/STM32G0xx_HAL_Driver/Inc/stm32g0xx_ll_adc.h ****   *         ADC must be enabled, without calibration on going, without conversion
1954:Drivers/STM32G0xx_HAL_Driver/Inc/stm32g0xx_ll_adc.h ****   *         on going on group regular.
1955:Drivers/STM32G0xx_HAL_Driver/Inc/stm32g0xx_ll_adc.h ****   * @rmtoll CALFACT  CALFACT        LL_ADC_SetCalibrationFactor
1956:Drivers/STM32G0xx_HAL_Driver/Inc/stm32g0xx_ll_adc.h ****   * @param  ADCx ADC instance
1957:Drivers/STM32G0xx_HAL_Driver/Inc/stm32g0xx_ll_adc.h ****   * @param  CalibrationFactor Value between Min_Data=0x00 and Max_Data=0x7F
1958:Drivers/STM32G0xx_HAL_Driver/Inc/stm32g0xx_ll_adc.h ****   * @retval None
1959:Drivers/STM32G0xx_HAL_Driver/Inc/stm32g0xx_ll_adc.h ****   */
1960:Drivers/STM32G0xx_HAL_Driver/Inc/stm32g0xx_ll_adc.h **** __STATIC_INLINE void LL_ADC_SetCalibrationFactor(ADC_TypeDef *ADCx, uint32_t CalibrationFactor)
1961:Drivers/STM32G0xx_HAL_Driver/Inc/stm32g0xx_ll_adc.h **** {
1962:Drivers/STM32G0xx_HAL_Driver/Inc/stm32g0xx_ll_adc.h ****   MODIFY_REG(ADCx->CALFACT,
1963:Drivers/STM32G0xx_HAL_Driver/Inc/stm32g0xx_ll_adc.h ****              ADC_CALFACT_CALFACT,
1964:Drivers/STM32G0xx_HAL_Driver/Inc/stm32g0xx_ll_adc.h ****              CalibrationFactor);
1965:Drivers/STM32G0xx_HAL_Driver/Inc/stm32g0xx_ll_adc.h **** }
1966:Drivers/STM32G0xx_HAL_Driver/Inc/stm32g0xx_ll_adc.h **** 
1967:Drivers/STM32G0xx_HAL_Driver/Inc/stm32g0xx_ll_adc.h **** /**
1968:Drivers/STM32G0xx_HAL_Driver/Inc/stm32g0xx_ll_adc.h ****   * @brief  Get ADC calibration factor in the mode single-ended
1969:Drivers/STM32G0xx_HAL_Driver/Inc/stm32g0xx_ll_adc.h ****   *         or differential (for devices with differential mode available).
1970:Drivers/STM32G0xx_HAL_Driver/Inc/stm32g0xx_ll_adc.h ****   * @note   Calibration factors are set by hardware after performing
1971:Drivers/STM32G0xx_HAL_Driver/Inc/stm32g0xx_ll_adc.h ****   *         a calibration run using function @ref LL_ADC_StartCalibration().
1972:Drivers/STM32G0xx_HAL_Driver/Inc/stm32g0xx_ll_adc.h ****   * @rmtoll CALFACT  CALFACT        LL_ADC_GetCalibrationFactor
1973:Drivers/STM32G0xx_HAL_Driver/Inc/stm32g0xx_ll_adc.h ****   * @param  ADCx ADC instance
1974:Drivers/STM32G0xx_HAL_Driver/Inc/stm32g0xx_ll_adc.h ****   * @retval Value between Min_Data=0x00 and Max_Data=0x7F
1975:Drivers/STM32G0xx_HAL_Driver/Inc/stm32g0xx_ll_adc.h ****   */
1976:Drivers/STM32G0xx_HAL_Driver/Inc/stm32g0xx_ll_adc.h **** __STATIC_INLINE uint32_t LL_ADC_GetCalibrationFactor(ADC_TypeDef *ADCx)
ARM GAS  /tmp/ccAd34n9.s 			page 39


1977:Drivers/STM32G0xx_HAL_Driver/Inc/stm32g0xx_ll_adc.h **** {
1978:Drivers/STM32G0xx_HAL_Driver/Inc/stm32g0xx_ll_adc.h ****   return (uint32_t)(READ_BIT(ADCx->CALFACT, ADC_CALFACT_CALFACT));
1979:Drivers/STM32G0xx_HAL_Driver/Inc/stm32g0xx_ll_adc.h **** }
1980:Drivers/STM32G0xx_HAL_Driver/Inc/stm32g0xx_ll_adc.h **** 
1981:Drivers/STM32G0xx_HAL_Driver/Inc/stm32g0xx_ll_adc.h **** /**
1982:Drivers/STM32G0xx_HAL_Driver/Inc/stm32g0xx_ll_adc.h ****   * @brief  Set ADC resolution.
1983:Drivers/STM32G0xx_HAL_Driver/Inc/stm32g0xx_ll_adc.h ****   *         Refer to reference manual for alignments formats
1984:Drivers/STM32G0xx_HAL_Driver/Inc/stm32g0xx_ll_adc.h ****   *         dependencies to ADC resolutions.
1985:Drivers/STM32G0xx_HAL_Driver/Inc/stm32g0xx_ll_adc.h ****   * @note   On this STM32 series, setting of this feature is conditioned to
1986:Drivers/STM32G0xx_HAL_Driver/Inc/stm32g0xx_ll_adc.h ****   *         ADC state:
1987:Drivers/STM32G0xx_HAL_Driver/Inc/stm32g0xx_ll_adc.h ****   *         ADC must be disabled or enabled without conversion on going
1988:Drivers/STM32G0xx_HAL_Driver/Inc/stm32g0xx_ll_adc.h ****   *         on group regular.
1989:Drivers/STM32G0xx_HAL_Driver/Inc/stm32g0xx_ll_adc.h ****   * @rmtoll CFGR1    RES            LL_ADC_SetResolution
1990:Drivers/STM32G0xx_HAL_Driver/Inc/stm32g0xx_ll_adc.h ****   * @param  ADCx ADC instance
1991:Drivers/STM32G0xx_HAL_Driver/Inc/stm32g0xx_ll_adc.h ****   * @param  Resolution This parameter can be one of the following values:
1992:Drivers/STM32G0xx_HAL_Driver/Inc/stm32g0xx_ll_adc.h ****   *         @arg @ref LL_ADC_RESOLUTION_12B
1993:Drivers/STM32G0xx_HAL_Driver/Inc/stm32g0xx_ll_adc.h ****   *         @arg @ref LL_ADC_RESOLUTION_10B
1994:Drivers/STM32G0xx_HAL_Driver/Inc/stm32g0xx_ll_adc.h ****   *         @arg @ref LL_ADC_RESOLUTION_8B
1995:Drivers/STM32G0xx_HAL_Driver/Inc/stm32g0xx_ll_adc.h ****   *         @arg @ref LL_ADC_RESOLUTION_6B
1996:Drivers/STM32G0xx_HAL_Driver/Inc/stm32g0xx_ll_adc.h ****   * @retval None
1997:Drivers/STM32G0xx_HAL_Driver/Inc/stm32g0xx_ll_adc.h ****   */
1998:Drivers/STM32G0xx_HAL_Driver/Inc/stm32g0xx_ll_adc.h **** __STATIC_INLINE void LL_ADC_SetResolution(ADC_TypeDef *ADCx, uint32_t Resolution)
1999:Drivers/STM32G0xx_HAL_Driver/Inc/stm32g0xx_ll_adc.h **** {
2000:Drivers/STM32G0xx_HAL_Driver/Inc/stm32g0xx_ll_adc.h ****   MODIFY_REG(ADCx->CFGR1, ADC_CFGR1_RES, Resolution);
2001:Drivers/STM32G0xx_HAL_Driver/Inc/stm32g0xx_ll_adc.h **** }
2002:Drivers/STM32G0xx_HAL_Driver/Inc/stm32g0xx_ll_adc.h **** 
2003:Drivers/STM32G0xx_HAL_Driver/Inc/stm32g0xx_ll_adc.h **** /**
2004:Drivers/STM32G0xx_HAL_Driver/Inc/stm32g0xx_ll_adc.h ****   * @brief  Get ADC resolution.
2005:Drivers/STM32G0xx_HAL_Driver/Inc/stm32g0xx_ll_adc.h ****   *         Refer to reference manual for alignments formats
2006:Drivers/STM32G0xx_HAL_Driver/Inc/stm32g0xx_ll_adc.h ****   *         dependencies to ADC resolutions.
2007:Drivers/STM32G0xx_HAL_Driver/Inc/stm32g0xx_ll_adc.h ****   * @rmtoll CFGR1    RES            LL_ADC_GetResolution
2008:Drivers/STM32G0xx_HAL_Driver/Inc/stm32g0xx_ll_adc.h ****   * @param  ADCx ADC instance
2009:Drivers/STM32G0xx_HAL_Driver/Inc/stm32g0xx_ll_adc.h ****   * @retval Returned value can be one of the following values:
2010:Drivers/STM32G0xx_HAL_Driver/Inc/stm32g0xx_ll_adc.h ****   *         @arg @ref LL_ADC_RESOLUTION_12B
2011:Drivers/STM32G0xx_HAL_Driver/Inc/stm32g0xx_ll_adc.h ****   *         @arg @ref LL_ADC_RESOLUTION_10B
2012:Drivers/STM32G0xx_HAL_Driver/Inc/stm32g0xx_ll_adc.h ****   *         @arg @ref LL_ADC_RESOLUTION_8B
2013:Drivers/STM32G0xx_HAL_Driver/Inc/stm32g0xx_ll_adc.h ****   *         @arg @ref LL_ADC_RESOLUTION_6B
2014:Drivers/STM32G0xx_HAL_Driver/Inc/stm32g0xx_ll_adc.h ****   */
2015:Drivers/STM32G0xx_HAL_Driver/Inc/stm32g0xx_ll_adc.h **** __STATIC_INLINE uint32_t LL_ADC_GetResolution(ADC_TypeDef *ADCx)
2016:Drivers/STM32G0xx_HAL_Driver/Inc/stm32g0xx_ll_adc.h **** {
2017:Drivers/STM32G0xx_HAL_Driver/Inc/stm32g0xx_ll_adc.h ****   return (uint32_t)(READ_BIT(ADCx->CFGR1, ADC_CFGR1_RES));
2018:Drivers/STM32G0xx_HAL_Driver/Inc/stm32g0xx_ll_adc.h **** }
2019:Drivers/STM32G0xx_HAL_Driver/Inc/stm32g0xx_ll_adc.h **** 
2020:Drivers/STM32G0xx_HAL_Driver/Inc/stm32g0xx_ll_adc.h **** /**
2021:Drivers/STM32G0xx_HAL_Driver/Inc/stm32g0xx_ll_adc.h ****   * @brief  Set ADC conversion data alignment.
2022:Drivers/STM32G0xx_HAL_Driver/Inc/stm32g0xx_ll_adc.h ****   * @note   Refer to reference manual for alignments formats
2023:Drivers/STM32G0xx_HAL_Driver/Inc/stm32g0xx_ll_adc.h ****   *         dependencies to ADC resolutions.
2024:Drivers/STM32G0xx_HAL_Driver/Inc/stm32g0xx_ll_adc.h ****   * @note   On this STM32 series, setting of this feature is conditioned to
2025:Drivers/STM32G0xx_HAL_Driver/Inc/stm32g0xx_ll_adc.h ****   *         ADC state:
2026:Drivers/STM32G0xx_HAL_Driver/Inc/stm32g0xx_ll_adc.h ****   *         ADC must be disabled or enabled without conversion on going
2027:Drivers/STM32G0xx_HAL_Driver/Inc/stm32g0xx_ll_adc.h ****   *         on group regular.
2028:Drivers/STM32G0xx_HAL_Driver/Inc/stm32g0xx_ll_adc.h ****   * @rmtoll CFGR1    ALIGN          LL_ADC_SetDataAlignment
2029:Drivers/STM32G0xx_HAL_Driver/Inc/stm32g0xx_ll_adc.h ****   * @param  ADCx ADC instance
