ARM GAS  /tmp/cc1Xuxev.s 			page 1


   1              		.cpu cortex-m0plus
   2              		.eabi_attribute 20, 1
   3              		.eabi_attribute 21, 1
   4              		.eabi_attribute 23, 3
   5              		.eabi_attribute 24, 1
   6              		.eabi_attribute 25, 1
   7              		.eabi_attribute 26, 1
   8              		.eabi_attribute 30, 1
   9              		.eabi_attribute 34, 0
  10              		.eabi_attribute 18, 4
  11              		.file	"syscalls.c"
  12              		.text
  13              	.Ltext0:
  14              		.cfi_sections	.debug_frame
  15              		.section	.text.RetargetInit,"ax",%progbits
  16              		.align	1
  17              		.global	RetargetInit
  18              		.arch armv6s-m
  19              		.syntax unified
  20              		.code	16
  21              		.thumb_func
  22              		.fpu softvfp
  24              	RetargetInit:
  25              	.LVL0:
  26              	.LFB418:
  27              		.file 1 "Core/Src/syscalls.c"
   1:Core/Src/syscalls.c **** #include <_ansi.h>
   2:Core/Src/syscalls.c **** #include <_syslist.h>
   3:Core/Src/syscalls.c **** #include <errno.h>
   4:Core/Src/syscalls.c **** #include <sys/time.h>
   5:Core/Src/syscalls.c **** #include <sys/times.h>
   6:Core/Src/syscalls.c **** #include <limits.h>
   7:Core/Src/syscalls.c **** #include <signal.h>
   8:Core/Src/syscalls.c **** #include <stdint.h>
   9:Core/Src/syscalls.c **** #include <stdio.h>
  10:Core/Src/syscalls.c **** #include "syscalls.h"
  11:Core/Src/syscalls.c **** 
  12:Core/Src/syscalls.c **** 
  13:Core/Src/syscalls.c **** #define STDIN_FILENO  0
  14:Core/Src/syscalls.c **** #define STDOUT_FILENO 1
  15:Core/Src/syscalls.c **** #define STDERR_FILENO 2
  16:Core/Src/syscalls.c **** 
  17:Core/Src/syscalls.c **** UART_HandleTypeDef *gHuart;
  18:Core/Src/syscalls.c **** register char * stack_ptr asm("sp");
  19:Core/Src/syscalls.c **** 
  20:Core/Src/syscalls.c **** void RetargetInit(UART_HandleTypeDef *huart) {
  28              		.loc 1 20 46 view -0
  29              		.cfi_startproc
  30              		@ args = 0, pretend = 0, frame = 0
  31              		@ frame_needed = 0, uses_anonymous_args = 0
  32              		.loc 1 20 46 is_stmt 0 view .LVU1
  33 0000 10B5     		push	{r4, lr}
  34              	.LCFI0:
  35              		.cfi_def_cfa_offset 8
  36              		.cfi_offset 4, -8
  37              		.cfi_offset 14, -4
  21:Core/Src/syscalls.c **** 	gHuart = huart;
ARM GAS  /tmp/cc1Xuxev.s 			page 2


  38              		.loc 1 21 2 is_stmt 1 view .LVU2
  39              		.loc 1 21 9 is_stmt 0 view .LVU3
  40 0002 054B     		ldr	r3, .L2
  41 0004 1860     		str	r0, [r3]
  22:Core/Src/syscalls.c **** 
  23:Core/Src/syscalls.c **** 	/* Disable I/O buffering for STDOUT stream, so that
  24:Core/Src/syscalls.c **** 	 * chars are sent out as soon as they are printed. */
  25:Core/Src/syscalls.c **** 	setvbuf(stdout, NULL, _IONBF, 0);
  42              		.loc 1 25 2 is_stmt 1 view .LVU4
  43              		.loc 1 25 9 is_stmt 0 view .LVU5
  44 0006 054B     		ldr	r3, .L2+4
  45 0008 1B68     		ldr	r3, [r3]
  46 000a 9868     		ldr	r0, [r3, #8]
  47              	.LVL1:
  48              		.loc 1 25 9 view .LVU6
  49 000c 0023     		movs	r3, #0
  50 000e 0222     		movs	r2, #2
  51 0010 0021     		movs	r1, #0
  52 0012 FFF7FEFF 		bl	setvbuf
  53              	.LVL2:
  26:Core/Src/syscalls.c **** }
  54              		.loc 1 26 1 view .LVU7
  55              		@ sp needed
  56 0016 10BD     		pop	{r4, pc}
  57              	.L3:
  58              		.align	2
  59              	.L2:
  60 0018 00000000 		.word	.LANCHOR0
  61 001c 00000000 		.word	_impure_ptr
  62              		.cfi_endproc
  63              	.LFE418:
  65              		.section	.text._isatty,"ax",%progbits
  66              		.align	1
  67              		.global	_isatty
  68              		.syntax unified
  69              		.code	16
  70              		.thumb_func
  71              		.fpu softvfp
  73              	_isatty:
  74              	.LVL3:
  75              	.LFB419:
  27:Core/Src/syscalls.c **** 
  28:Core/Src/syscalls.c **** int _isatty(int fd) {
  76              		.loc 1 28 21 is_stmt 1 view -0
  77              		.cfi_startproc
  78              		@ args = 0, pretend = 0, frame = 0
  79              		@ frame_needed = 0, uses_anonymous_args = 0
  80              		.loc 1 28 21 is_stmt 0 view .LVU9
  81 0000 10B5     		push	{r4, lr}
  82              	.LCFI1:
  83              		.cfi_def_cfa_offset 8
  84              		.cfi_offset 4, -8
  85              		.cfi_offset 14, -4
  29:Core/Src/syscalls.c **** 	if (fd >= STDIN_FILENO && fd <= STDERR_FILENO)
  86              		.loc 1 29 2 is_stmt 1 view .LVU10
  87 0002 0228     		cmp	r0, #2
  88 0004 01D8     		bhi	.L7
ARM GAS  /tmp/cc1Xuxev.s 			page 3


  30:Core/Src/syscalls.c **** 		return 1;
  89              		.loc 1 30 10 is_stmt 0 view .LVU11
  90 0006 0120     		movs	r0, #1
  91              	.LVL4:
  92              	.L4:
  31:Core/Src/syscalls.c **** 
  32:Core/Src/syscalls.c **** 	errno = EBADF;
  33:Core/Src/syscalls.c **** 	return 0;
  34:Core/Src/syscalls.c **** }
  93              		.loc 1 34 1 view .LVU12
  94              		@ sp needed
  95 0008 10BD     		pop	{r4, pc}
  96              	.LVL5:
  97              	.L7:
  32:Core/Src/syscalls.c **** 	return 0;
  98              		.loc 1 32 2 is_stmt 1 view .LVU13
  99 000a FFF7FEFF 		bl	__errno
 100              	.LVL6:
  32:Core/Src/syscalls.c **** 	return 0;
 101              		.loc 1 32 8 is_stmt 0 view .LVU14
 102 000e 0923     		movs	r3, #9
 103 0010 0360     		str	r3, [r0]
  33:Core/Src/syscalls.c **** }
 104              		.loc 1 33 2 is_stmt 1 view .LVU15
  33:Core/Src/syscalls.c **** }
 105              		.loc 1 33 9 is_stmt 0 view .LVU16
 106 0012 0020     		movs	r0, #0
 107 0014 F8E7     		b	.L4
 108              		.cfi_endproc
 109              	.LFE419:
 111              		.section	.text._write,"ax",%progbits
 112              		.align	1
 113              		.global	_write
 114              		.syntax unified
 115              		.code	16
 116              		.thumb_func
 117              		.fpu softvfp
 119              	_write:
 120              	.LVL7:
 121              	.LFB420:
  35:Core/Src/syscalls.c **** 
  36:Core/Src/syscalls.c **** int _write(int fd, char* ptr, int len)
  37:Core/Src/syscalls.c **** {
 122              		.loc 1 37 1 is_stmt 1 view -0
 123              		.cfi_startproc
 124              		@ args = 0, pretend = 0, frame = 0
 125              		@ frame_needed = 0, uses_anonymous_args = 0
 126              		.loc 1 37 1 is_stmt 0 view .LVU18
 127 0000 10B5     		push	{r4, lr}
 128              	.LCFI2:
 129              		.cfi_def_cfa_offset 8
 130              		.cfi_offset 4, -8
 131              		.cfi_offset 14, -4
 132 0002 1400     		movs	r4, r2
  38:Core/Src/syscalls.c **** 	if (fd == STDOUT_FILENO || fd == STDERR_FILENO)
 133              		.loc 1 38 2 is_stmt 1 view .LVU19
 134              		.loc 1 38 26 is_stmt 0 view .LVU20
ARM GAS  /tmp/cc1Xuxev.s 			page 4


 135 0004 0138     		subs	r0, r0, #1
 136              	.LVL8:
 137              		.loc 1 38 2 view .LVU21
 138 0006 0128     		cmp	r0, #1
 139 0008 0AD8     		bhi	.L9
  39:Core/Src/syscalls.c **** 	{
  40:Core/Src/syscalls.c **** 		return
 140              		.loc 1 40 3 is_stmt 1 view .LVU22
  41:Core/Src/syscalls.c **** 			HAL_UART_Transmit(gHuart, (uint8_t *) ptr, len, 1000) == HAL_OK
 141              		.loc 1 41 21 is_stmt 0 view .LVU23
 142 000a FA23     		movs	r3, #250
 143 000c 92B2     		uxth	r2, r2
 144              	.LVL9:
 145              		.loc 1 41 21 view .LVU24
 146 000e 0948     		ldr	r0, .L12
 147              	.LVL10:
 148              		.loc 1 41 21 view .LVU25
 149 0010 0068     		ldr	r0, [r0]
 150 0012 9B00     		lsls	r3, r3, #2
 151 0014 FFF7FEFF 		bl	HAL_UART_Transmit
 152              	.LVL11:
  42:Core/Src/syscalls.c **** 			? len
 153              		.loc 1 42 4 view .LVU26
 154 0018 0028     		cmp	r0, #0
 155 001a 08D1     		bne	.L11
 156 001c 2000     		movs	r0, r4
 157              	.L8:
  43:Core/Src/syscalls.c **** 			: EIO;
  44:Core/Src/syscalls.c **** 	}
  45:Core/Src/syscalls.c **** 	errno = EBADF;
  46:Core/Src/syscalls.c **** 	return -1;
  47:Core/Src/syscalls.c **** }
 158              		.loc 1 47 1 view .LVU27
 159              		@ sp needed
 160              	.LVL12:
 161              		.loc 1 47 1 view .LVU28
 162 001e 10BD     		pop	{r4, pc}
 163              	.LVL13:
 164              	.L9:
  45:Core/Src/syscalls.c **** 	return -1;
 165              		.loc 1 45 2 is_stmt 1 view .LVU29
 166 0020 FFF7FEFF 		bl	__errno
 167              	.LVL14:
  45:Core/Src/syscalls.c **** 	return -1;
 168              		.loc 1 45 8 is_stmt 0 view .LVU30
 169 0024 0923     		movs	r3, #9
 170 0026 0360     		str	r3, [r0]
  46:Core/Src/syscalls.c **** }
 171              		.loc 1 46 2 is_stmt 1 view .LVU31
  46:Core/Src/syscalls.c **** }
 172              		.loc 1 46 10 is_stmt 0 view .LVU32
 173 0028 0120     		movs	r0, #1
 174 002a 4042     		rsbs	r0, r0, #0
 175 002c F7E7     		b	.L8
 176              	.L11:
  42:Core/Src/syscalls.c **** 			: EIO;
 177              		.loc 1 42 4 view .LVU33
ARM GAS  /tmp/cc1Xuxev.s 			page 5


 178 002e 0520     		movs	r0, #5
 179 0030 F5E7     		b	.L8
 180              	.L13:
 181 0032 C046     		.align	2
 182              	.L12:
 183 0034 00000000 		.word	.LANCHOR0
 184              		.cfi_endproc
 185              	.LFE420:
 187              		.section	.text._close,"ax",%progbits
 188              		.align	1
 189              		.global	_close
 190              		.syntax unified
 191              		.code	16
 192              		.thumb_func
 193              		.fpu softvfp
 195              	_close:
 196              	.LVL15:
 197              	.LFB421:
  48:Core/Src/syscalls.c **** 
  49:Core/Src/syscalls.c **** int _close(int fd) {
 198              		.loc 1 49 20 is_stmt 1 view -0
 199              		.cfi_startproc
 200              		@ args = 0, pretend = 0, frame = 0
 201              		@ frame_needed = 0, uses_anonymous_args = 0
 202              		.loc 1 49 20 is_stmt 0 view .LVU35
 203 0000 10B5     		push	{r4, lr}
 204              	.LCFI3:
 205              		.cfi_def_cfa_offset 8
 206              		.cfi_offset 4, -8
 207              		.cfi_offset 14, -4
  50:Core/Src/syscalls.c **** 	if (fd >= STDIN_FILENO && fd <= STDERR_FILENO)
 208              		.loc 1 50 2 is_stmt 1 view .LVU36
 209 0002 0228     		cmp	r0, #2
 210 0004 01D8     		bhi	.L17
  51:Core/Src/syscalls.c **** 		return 0;
 211              		.loc 1 51 10 is_stmt 0 view .LVU37
 212 0006 0020     		movs	r0, #0
 213              	.LVL16:
 214              	.L14:
  52:Core/Src/syscalls.c **** 
  53:Core/Src/syscalls.c **** 	errno = EBADF;
  54:Core/Src/syscalls.c **** 	return -1;
  55:Core/Src/syscalls.c **** }
 215              		.loc 1 55 1 view .LVU38
 216              		@ sp needed
 217 0008 10BD     		pop	{r4, pc}
 218              	.LVL17:
 219              	.L17:
  53:Core/Src/syscalls.c **** 	return -1;
 220              		.loc 1 53 2 is_stmt 1 view .LVU39
 221 000a FFF7FEFF 		bl	__errno
 222              	.LVL18:
  53:Core/Src/syscalls.c **** 	return -1;
 223              		.loc 1 53 8 is_stmt 0 view .LVU40
 224 000e 0923     		movs	r3, #9
 225 0010 0360     		str	r3, [r0]
  54:Core/Src/syscalls.c **** }
ARM GAS  /tmp/cc1Xuxev.s 			page 6


 226              		.loc 1 54 2 is_stmt 1 view .LVU41
  54:Core/Src/syscalls.c **** }
 227              		.loc 1 54 10 is_stmt 0 view .LVU42
 228 0012 0120     		movs	r0, #1
 229 0014 4042     		rsbs	r0, r0, #0
 230 0016 F7E7     		b	.L14
 231              		.cfi_endproc
 232              	.LFE421:
 234              		.section	.text._lseek,"ax",%progbits
 235              		.align	1
 236              		.global	_lseek
 237              		.syntax unified
 238              		.code	16
 239              		.thumb_func
 240              		.fpu softvfp
 242              	_lseek:
 243              	.LVL19:
 244              	.LFB422:
  56:Core/Src/syscalls.c **** 
  57:Core/Src/syscalls.c **** int _lseek(int fd, int ptr, int dir) {
 245              		.loc 1 57 38 is_stmt 1 view -0
 246              		.cfi_startproc
 247              		@ args = 0, pretend = 0, frame = 0
 248              		@ frame_needed = 0, uses_anonymous_args = 0
 249              		.loc 1 57 38 is_stmt 0 view .LVU44
 250 0000 10B5     		push	{r4, lr}
 251              	.LCFI4:
 252              		.cfi_def_cfa_offset 8
 253              		.cfi_offset 4, -8
 254              		.cfi_offset 14, -4
  58:Core/Src/syscalls.c **** 	(void) fd;
 255              		.loc 1 58 2 is_stmt 1 view .LVU45
  59:Core/Src/syscalls.c **** 	(void) ptr;
 256              		.loc 1 59 2 view .LVU46
  60:Core/Src/syscalls.c **** 	(void) dir;
 257              		.loc 1 60 2 view .LVU47
  61:Core/Src/syscalls.c **** 
  62:Core/Src/syscalls.c **** 	errno = EBADF;
 258              		.loc 1 62 2 view .LVU48
 259 0002 FFF7FEFF 		bl	__errno
 260              	.LVL20:
 261              		.loc 1 62 8 is_stmt 0 view .LVU49
 262 0006 0923     		movs	r3, #9
 263 0008 0360     		str	r3, [r0]
  63:Core/Src/syscalls.c **** 	return -1;
 264              		.loc 1 63 2 is_stmt 1 view .LVU50
 265              		.loc 1 63 10 is_stmt 0 view .LVU51
 266 000a 0120     		movs	r0, #1
  64:Core/Src/syscalls.c **** }
 267              		.loc 1 64 1 view .LVU52
 268 000c 4042     		rsbs	r0, r0, #0
 269              		@ sp needed
 270 000e 10BD     		pop	{r4, pc}
 271              		.cfi_endproc
 272              	.LFE422:
 274              		.section	.text._read,"ax",%progbits
 275              		.align	1
ARM GAS  /tmp/cc1Xuxev.s 			page 7


 276              		.global	_read
 277              		.syntax unified
 278              		.code	16
 279              		.thumb_func
 280              		.fpu softvfp
 282              	_read:
 283              	.LVL21:
 284              	.LFB423:
  65:Core/Src/syscalls.c **** 
  66:Core/Src/syscalls.c **** int _read(int fd, char* ptr, int len) {
 285              		.loc 1 66 39 is_stmt 1 view -0
 286              		.cfi_startproc
 287              		@ args = 0, pretend = 0, frame = 0
 288              		@ frame_needed = 0, uses_anonymous_args = 0
 289              		.loc 1 66 39 is_stmt 0 view .LVU54
 290 0000 10B5     		push	{r4, lr}
 291              	.LCFI5:
 292              		.cfi_def_cfa_offset 8
 293              		.cfi_offset 4, -8
 294              		.cfi_offset 14, -4
  67:Core/Src/syscalls.c **** 	HAL_StatusTypeDef hstatus;
 295              		.loc 1 67 2 is_stmt 1 view .LVU55
  68:Core/Src/syscalls.c **** 
  69:Core/Src/syscalls.c **** 	if (fd == STDIN_FILENO) {
 296              		.loc 1 69 2 view .LVU56
 297 0002 0028     		cmp	r0, #0
 298 0004 0AD1     		bne	.L20
  70:Core/Src/syscalls.c **** 		hstatus = HAL_UART_Receive(gHuart, (uint8_t *) ptr, 1, HAL_MAX_DELAY);
 299              		.loc 1 70 3 view .LVU57
 300              		.loc 1 70 29 is_stmt 0 view .LVU58
 301 0006 0123     		movs	r3, #1
 302 0008 094A     		ldr	r2, .L23
 303              	.LVL22:
 304              		.loc 1 70 29 view .LVU59
 305 000a 1068     		ldr	r0, [r2]
 306              	.LVL23:
 307              		.loc 1 70 29 view .LVU60
 308 000c 5B42     		rsbs	r3, r3, #0
 309 000e 0122     		movs	r2, #1
 310 0010 FFF7FEFF 		bl	HAL_UART_Receive
 311              	.LVL24:
  71:Core/Src/syscalls.c **** 		if (hstatus == HAL_OK)
 312              		.loc 1 71 3 is_stmt 1 view .LVU61
 313 0014 0028     		cmp	r0, #0
 314 0016 08D1     		bne	.L22
  72:Core/Src/syscalls.c **** 			return 1;
 315              		.loc 1 72 11 is_stmt 0 view .LVU62
 316 0018 0130     		adds	r0, r0, #1
 317              	.LVL25:
 318              	.L19:
  73:Core/Src/syscalls.c **** 		else
  74:Core/Src/syscalls.c **** 			return EIO;
  75:Core/Src/syscalls.c **** 	}
  76:Core/Src/syscalls.c **** 	errno = EBADF;
  77:Core/Src/syscalls.c **** 	return -1;
  78:Core/Src/syscalls.c **** }
 319              		.loc 1 78 1 view .LVU63
ARM GAS  /tmp/cc1Xuxev.s 			page 8


 320              		@ sp needed
 321 001a 10BD     		pop	{r4, pc}
 322              	.LVL26:
 323              	.L20:
  76:Core/Src/syscalls.c **** 	return -1;
 324              		.loc 1 76 2 is_stmt 1 view .LVU64
 325 001c FFF7FEFF 		bl	__errno
 326              	.LVL27:
  76:Core/Src/syscalls.c **** 	return -1;
 327              		.loc 1 76 8 is_stmt 0 view .LVU65
 328 0020 0923     		movs	r3, #9
 329 0022 0360     		str	r3, [r0]
  77:Core/Src/syscalls.c **** }
 330              		.loc 1 77 2 is_stmt 1 view .LVU66
  77:Core/Src/syscalls.c **** }
 331              		.loc 1 77 10 is_stmt 0 view .LVU67
 332 0024 0120     		movs	r0, #1
 333 0026 4042     		rsbs	r0, r0, #0
 334 0028 F7E7     		b	.L19
 335              	.LVL28:
 336              	.L22:
  74:Core/Src/syscalls.c **** 	}
 337              		.loc 1 74 11 view .LVU68
 338 002a 0520     		movs	r0, #5
 339              	.LVL29:
  74:Core/Src/syscalls.c **** 	}
 340              		.loc 1 74 11 view .LVU69
 341 002c F5E7     		b	.L19
 342              	.L24:
 343 002e C046     		.align	2
 344              	.L23:
 345 0030 00000000 		.word	.LANCHOR0
 346              		.cfi_endproc
 347              	.LFE423:
 349              		.section	.text._fstat,"ax",%progbits
 350              		.align	1
 351              		.global	_fstat
 352              		.syntax unified
 353              		.code	16
 354              		.thumb_func
 355              		.fpu softvfp
 357              	_fstat:
 358              	.LVL30:
 359              	.LFB424:
  79:Core/Src/syscalls.c **** 
  80:Core/Src/syscalls.c **** int _fstat(int fd, struct stat* st) {
 360              		.loc 1 80 37 is_stmt 1 view -0
 361              		.cfi_startproc
 362              		@ args = 0, pretend = 0, frame = 0
 363              		@ frame_needed = 0, uses_anonymous_args = 0
 364              		.loc 1 80 37 is_stmt 0 view .LVU71
 365 0000 10B5     		push	{r4, lr}
 366              	.LCFI6:
 367              		.cfi_def_cfa_offset 8
 368              		.cfi_offset 4, -8
 369              		.cfi_offset 14, -4
  81:Core/Src/syscalls.c **** 	if (fd >= STDIN_FILENO && fd <= STDERR_FILENO) {
ARM GAS  /tmp/cc1Xuxev.s 			page 9


 370              		.loc 1 81 2 is_stmt 1 view .LVU72
 371 0002 0228     		cmp	r0, #2
 372 0004 04D8     		bhi	.L26
  82:Core/Src/syscalls.c **** 		st->st_mode = S_IFCHR;
 373              		.loc 1 82 3 view .LVU73
 374              		.loc 1 82 15 is_stmt 0 view .LVU74
 375 0006 8023     		movs	r3, #128
 376 0008 9B01     		lsls	r3, r3, #6
 377 000a 4B60     		str	r3, [r1, #4]
  83:Core/Src/syscalls.c **** 		return 0;
 378              		.loc 1 83 3 is_stmt 1 view .LVU75
 379              	.LVL31:
 380              	.L27:
  84:Core/Src/syscalls.c **** 	}
  85:Core/Src/syscalls.c **** 
  86:Core/Src/syscalls.c **** 	errno = EBADF;
  87:Core/Src/syscalls.c **** 	return 0;
  88:Core/Src/syscalls.c **** }
 381              		.loc 1 88 1 is_stmt 0 view .LVU76
 382 000c 0020     		movs	r0, #0
 383              		@ sp needed
 384 000e 10BD     		pop	{r4, pc}
 385              	.LVL32:
 386              	.L26:
  86:Core/Src/syscalls.c **** 	return 0;
 387              		.loc 1 86 2 is_stmt 1 view .LVU77
 388 0010 FFF7FEFF 		bl	__errno
 389              	.LVL33:
  86:Core/Src/syscalls.c **** 	return 0;
 390              		.loc 1 86 8 is_stmt 0 view .LVU78
 391 0014 0923     		movs	r3, #9
 392 0016 0360     		str	r3, [r0]
  87:Core/Src/syscalls.c **** }
 393              		.loc 1 87 2 is_stmt 1 view .LVU79
  87:Core/Src/syscalls.c **** }
 394              		.loc 1 87 9 is_stmt 0 view .LVU80
 395 0018 F8E7     		b	.L27
 396              		.cfi_endproc
 397              	.LFE424:
 399              		.section	.text._sbrk,"ax",%progbits
 400              		.align	1
 401              		.global	_sbrk
 402              		.syntax unified
 403              		.code	16
 404              		.thumb_func
 405              		.fpu softvfp
 407              	_sbrk:
 408              	.LVL34:
 409              	.LFB425:
  89:Core/Src/syscalls.c **** 
  90:Core/Src/syscalls.c **** caddr_t _sbrk (int incr)
  91:Core/Src/syscalls.c **** {
 410              		.loc 1 91 1 is_stmt 1 view -0
 411              		.cfi_startproc
 412              		@ args = 0, pretend = 0, frame = 0
 413              		@ frame_needed = 0, uses_anonymous_args = 0
 414              		.loc 1 91 1 is_stmt 0 view .LVU82
ARM GAS  /tmp/cc1Xuxev.s 			page 10


 415 0000 10B5     		push	{r4, lr}
 416              	.LCFI7:
 417              		.cfi_def_cfa_offset 8
 418              		.cfi_offset 4, -8
 419              		.cfi_offset 14, -4
 420 0002 0300     		movs	r3, r0
  92:Core/Src/syscalls.c **** 	extern char end asm("end");
 421              		.loc 1 92 2 is_stmt 1 view .LVU83
  93:Core/Src/syscalls.c **** 	static char * heap;
 422              		.loc 1 93 2 view .LVU84
  94:Core/Src/syscalls.c **** 	static char * prev_heap;
 423              		.loc 1 94 2 view .LVU85
  95:Core/Src/syscalls.c **** 
  96:Core/Src/syscalls.c **** 	if (heap == NULL)
 424              		.loc 1 96 2 view .LVU86
 425              		.loc 1 96 11 is_stmt 0 view .LVU87
 426 0004 0C4A     		ldr	r2, .L34
 427 0006 1268     		ldr	r2, [r2]
 428              		.loc 1 96 2 view .LVU88
 429 0008 002A     		cmp	r2, #0
 430 000a 0AD0     		beq	.L32
 431              	.L29:
  97:Core/Src/syscalls.c **** 	{
  98:Core/Src/syscalls.c **** 		heap = &end;
  99:Core/Src/syscalls.c **** 	}
 100:Core/Src/syscalls.c **** 
 101:Core/Src/syscalls.c **** 	prev_heap = heap;
 432              		.loc 1 101 2 is_stmt 1 view .LVU89
 433              		.loc 1 101 12 is_stmt 0 view .LVU90
 434 000c 0A4A     		ldr	r2, .L34
 435 000e 1068     		ldr	r0, [r2]
 436              	.LVL35:
 437              		.loc 1 101 12 view .LVU91
 438 0010 0A4A     		ldr	r2, .L34+4
 439 0012 1060     		str	r0, [r2]
 102:Core/Src/syscalls.c **** 
 103:Core/Src/syscalls.c **** 	if ((heap + incr) > stack_ptr)
 440              		.loc 1 103 2 is_stmt 1 view .LVU92
 441              		.loc 1 103 12 is_stmt 0 view .LVU93
 442 0014 C318     		adds	r3, r0, r3
 443              	.LVL36:
 444              		.loc 1 103 2 view .LVU94
 445 0016 6A46     		mov	r2, sp
 446 0018 9342     		cmp	r3, r2
 447 001a 06D8     		bhi	.L33
 104:Core/Src/syscalls.c **** 	{
 105:Core/Src/syscalls.c **** 		errno = ENOMEM;
 106:Core/Src/syscalls.c **** 		return (caddr_t) -1;
 107:Core/Src/syscalls.c **** 	}
 108:Core/Src/syscalls.c **** 
 109:Core/Src/syscalls.c **** 	heap += incr;
 448              		.loc 1 109 2 is_stmt 1 view .LVU95
 449              		.loc 1 109 7 is_stmt 0 view .LVU96
 450 001c 064A     		ldr	r2, .L34
 451 001e 1360     		str	r3, [r2]
 110:Core/Src/syscalls.c **** 
 111:Core/Src/syscalls.c **** 	return (caddr_t) prev_heap;
ARM GAS  /tmp/cc1Xuxev.s 			page 11


 452              		.loc 1 111 2 is_stmt 1 view .LVU97
 453              	.L28:
 112:Core/Src/syscalls.c **** }
 454              		.loc 1 112 1 is_stmt 0 view .LVU98
 455              		@ sp needed
 456 0020 10BD     		pop	{r4, pc}
 457              	.LVL37:
 458              	.L32:
  98:Core/Src/syscalls.c **** 	}
 459              		.loc 1 98 3 is_stmt 1 view .LVU99
  98:Core/Src/syscalls.c **** 	}
 460              		.loc 1 98 8 is_stmt 0 view .LVU100
 461 0022 054A     		ldr	r2, .L34
 462 0024 0649     		ldr	r1, .L34+8
 463 0026 1160     		str	r1, [r2]
 464 0028 F0E7     		b	.L29
 465              	.LVL38:
 466              	.L33:
 105:Core/Src/syscalls.c **** 		return (caddr_t) -1;
 467              		.loc 1 105 3 is_stmt 1 view .LVU101
 468 002a FFF7FEFF 		bl	__errno
 469              	.LVL39:
 105:Core/Src/syscalls.c **** 		return (caddr_t) -1;
 470              		.loc 1 105 9 is_stmt 0 view .LVU102
 471 002e 0C23     		movs	r3, #12
 472 0030 0360     		str	r3, [r0]
 106:Core/Src/syscalls.c **** 	}
 473              		.loc 1 106 3 is_stmt 1 view .LVU103
 106:Core/Src/syscalls.c **** 	}
 474              		.loc 1 106 21 is_stmt 0 view .LVU104
 475 0032 0120     		movs	r0, #1
 476 0034 4042     		rsbs	r0, r0, #0
 477 0036 F3E7     		b	.L28
 478              	.L35:
 479              		.align	2
 480              	.L34:
 481 0038 00000000 		.word	.LANCHOR1
 482 003c 00000000 		.word	.LANCHOR2
 483 0040 00000000 		.word	end
 484              		.cfi_endproc
 485              	.LFE425:
 487              		.global	gHuart
 488              		.section	.bss._ZZ5_sbrkE4heap,"aw",%nobits
 489              		.align	2
 490              		.set	.LANCHOR1,. + 0
 493              	_ZZ5_sbrkE4heap:
 494 0000 00000000 		.space	4
 495              		.section	.bss._ZZ5_sbrkE9prev_heap,"aw",%nobits
 496              		.align	2
 497              		.set	.LANCHOR2,. + 0
 500              	_ZZ5_sbrkE9prev_heap:
 501 0000 00000000 		.space	4
 502              		.section	.bss.gHuart,"aw",%nobits
 503              		.align	2
 504              		.set	.LANCHOR0,. + 0
 507              	gHuart:
 508 0000 00000000 		.space	4
ARM GAS  /tmp/cc1Xuxev.s 			page 12


 509              		.text
 510              	.Letext0:
 511              		.file 2 "/home/robert/gcc-arm-none-eabi-10.3-2021.07/lib/gcc/arm-none-eabi/10.3.1/include/stddef.h
 512              		.file 3 "/home/robert/gcc-arm-none-eabi-10.3-2021.07/arm-none-eabi/include/machine/_default_types.
 513              		.file 4 "/home/robert/gcc-arm-none-eabi-10.3-2021.07/arm-none-eabi/include/sys/_types.h"
 514              		.file 5 "/home/robert/gcc-arm-none-eabi-10.3-2021.07/arm-none-eabi/include/sys/reent.h"
 515              		.file 6 "/home/robert/gcc-arm-none-eabi-10.3-2021.07/arm-none-eabi/include/sys/lock.h"
 516              		.file 7 "/home/robert/gcc-arm-none-eabi-10.3-2021.07/arm-none-eabi/include/sys/_timeval.h"
 517              		.file 8 "/home/robert/gcc-arm-none-eabi-10.3-2021.07/arm-none-eabi/include/sys/_stdint.h"
 518              		.file 9 "/home/robert/gcc-arm-none-eabi-10.3-2021.07/arm-none-eabi/include/sys/types.h"
 519              		.file 10 "/home/robert/gcc-arm-none-eabi-10.3-2021.07/arm-none-eabi/include/sys/_timespec.h"
 520              		.file 11 "Drivers/CMSIS/Device/ST/STM32G0xx/Include/stm32g030xx.h"
 521              		.file 12 "Drivers/STM32G0xx_HAL_Driver/Inc/stm32g0xx_hal_def.h"
 522              		.file 13 "Drivers/STM32G0xx_HAL_Driver/Inc/stm32g0xx_hal_dma.h"
 523              		.file 14 "Drivers/STM32G0xx_HAL_Driver/Inc/stm32g0xx_hal_uart.h"
 524              		.file 15 "Drivers/STM32G0xx_HAL_Driver/Inc/stm32g0xx_hal.h"
 525              		.file 16 "/home/robert/gcc-arm-none-eabi-10.3-2021.07/arm-none-eabi/include/sys/stat.h"
 526              		.file 17 "Drivers/STM32G0xx_HAL_Driver/Inc/stm32g0xx_ll_dma.h"
 527              		.file 18 "/home/robert/gcc-arm-none-eabi-10.3-2021.07/arm-none-eabi/include/sys/errno.h"
 528              		.file 19 "/home/robert/gcc-arm-none-eabi-10.3-2021.07/arm-none-eabi/include/stdio.h"
ARM GAS  /tmp/cc1Xuxev.s 			page 13

